ARM GAS  C:\Users\patel\AppData\Local\Temp\cctFFzTN.s 			page 1


   1              		.syntax unified
   2              		.cpu cortex-m3
   3              		.fpu softvfp
   4              		.eabi_attribute 20, 1
   5              		.eabi_attribute 21, 1
   6              		.eabi_attribute 23, 3
   7              		.eabi_attribute 24, 1
   8              		.eabi_attribute 25, 1
   9              		.eabi_attribute 26, 1
  10              		.eabi_attribute 30, 6
  11              		.eabi_attribute 34, 1
  12              		.eabi_attribute 18, 4
  13              		.thumb
  14              		.file	"isr_TS.c"
  15              		.text
  16              	.Ltext0:
  17              		.cfi_sections	.debug_frame
  18              		.section	.text.isr_TS_Start,"ax",%progbits
  19              		.align	2
  20              		.global	isr_TS_Start
  21              		.thumb
  22              		.thumb_func
  23              		.type	isr_TS_Start, %function
  24              	isr_TS_Start:
  25              	.LFB0:
  26              		.file 1 ".\\Generated_Source\\PSoC5\\isr_TS.c"
   1:.\Generated_Source\PSoC5/isr_TS.c **** /*******************************************************************************
   2:.\Generated_Source\PSoC5/isr_TS.c **** * File Name: isr_TS.c  
   3:.\Generated_Source\PSoC5/isr_TS.c **** * Version 1.70
   4:.\Generated_Source\PSoC5/isr_TS.c **** *
   5:.\Generated_Source\PSoC5/isr_TS.c **** *  Description:
   6:.\Generated_Source\PSoC5/isr_TS.c **** *   API for controlling the state of an interrupt.
   7:.\Generated_Source\PSoC5/isr_TS.c **** *
   8:.\Generated_Source\PSoC5/isr_TS.c **** *
   9:.\Generated_Source\PSoC5/isr_TS.c **** *  Note:
  10:.\Generated_Source\PSoC5/isr_TS.c **** *
  11:.\Generated_Source\PSoC5/isr_TS.c **** ********************************************************************************
  12:.\Generated_Source\PSoC5/isr_TS.c **** * Copyright 2008-2015, Cypress Semiconductor Corporation.  All rights reserved.
  13:.\Generated_Source\PSoC5/isr_TS.c **** * You may use this file only in accordance with the license, terms, conditions, 
  14:.\Generated_Source\PSoC5/isr_TS.c **** * disclaimers, and limitations in the end user license agreement accompanying 
  15:.\Generated_Source\PSoC5/isr_TS.c **** * the software package with which this file was provided.
  16:.\Generated_Source\PSoC5/isr_TS.c **** *******************************************************************************/
  17:.\Generated_Source\PSoC5/isr_TS.c **** 
  18:.\Generated_Source\PSoC5/isr_TS.c **** 
  19:.\Generated_Source\PSoC5/isr_TS.c **** #include <cydevice_trm.h>
  20:.\Generated_Source\PSoC5/isr_TS.c **** #include <CyLib.h>
  21:.\Generated_Source\PSoC5/isr_TS.c **** #include <isr_TS.h>
  22:.\Generated_Source\PSoC5/isr_TS.c **** 
  23:.\Generated_Source\PSoC5/isr_TS.c **** 
  24:.\Generated_Source\PSoC5/isr_TS.c **** #if !defined(isr_TS__REMOVED) /* Check for removal by optimization */
  25:.\Generated_Source\PSoC5/isr_TS.c **** 
  26:.\Generated_Source\PSoC5/isr_TS.c **** /*******************************************************************************
  27:.\Generated_Source\PSoC5/isr_TS.c **** *  Place your includes, defines and code here 
  28:.\Generated_Source\PSoC5/isr_TS.c **** ********************************************************************************/
  29:.\Generated_Source\PSoC5/isr_TS.c **** /* `#START isr_TS_intc` */
  30:.\Generated_Source\PSoC5/isr_TS.c **** extern uint8 ts;
  31:.\Generated_Source\PSoC5/isr_TS.c ****     
ARM GAS  C:\Users\patel\AppData\Local\Temp\cctFFzTN.s 			page 2


  32:.\Generated_Source\PSoC5/isr_TS.c **** extern uint8 timerOverflow_flag;
  33:.\Generated_Source\PSoC5/isr_TS.c ****     
  34:.\Generated_Source\PSoC5/isr_TS.c **** /* `#END` */
  35:.\Generated_Source\PSoC5/isr_TS.c **** 
  36:.\Generated_Source\PSoC5/isr_TS.c **** #ifndef CYINT_IRQ_BASE
  37:.\Generated_Source\PSoC5/isr_TS.c **** #define CYINT_IRQ_BASE      16
  38:.\Generated_Source\PSoC5/isr_TS.c **** #endif /* CYINT_IRQ_BASE */
  39:.\Generated_Source\PSoC5/isr_TS.c **** #ifndef CYINT_VECT_TABLE
  40:.\Generated_Source\PSoC5/isr_TS.c **** #define CYINT_VECT_TABLE    ((cyisraddress **) CYREG_NVIC_VECT_OFFSET)
  41:.\Generated_Source\PSoC5/isr_TS.c **** #endif /* CYINT_VECT_TABLE */
  42:.\Generated_Source\PSoC5/isr_TS.c **** 
  43:.\Generated_Source\PSoC5/isr_TS.c **** /* Declared in startup, used to set unused interrupts to. */
  44:.\Generated_Source\PSoC5/isr_TS.c **** CY_ISR_PROTO(IntDefaultHandler);
  45:.\Generated_Source\PSoC5/isr_TS.c **** 
  46:.\Generated_Source\PSoC5/isr_TS.c **** 
  47:.\Generated_Source\PSoC5/isr_TS.c **** /*******************************************************************************
  48:.\Generated_Source\PSoC5/isr_TS.c **** * Function Name: isr_TS_Start
  49:.\Generated_Source\PSoC5/isr_TS.c **** ********************************************************************************
  50:.\Generated_Source\PSoC5/isr_TS.c **** *
  51:.\Generated_Source\PSoC5/isr_TS.c **** * Summary:
  52:.\Generated_Source\PSoC5/isr_TS.c **** *  Set up the interrupt and enable it. This function disables the interrupt, 
  53:.\Generated_Source\PSoC5/isr_TS.c **** *  sets the default interrupt vector, sets the priority from the value in the
  54:.\Generated_Source\PSoC5/isr_TS.c **** *  Design Wide Resources Interrupt Editor, then enables the interrupt to the 
  55:.\Generated_Source\PSoC5/isr_TS.c **** *  interrupt controller.
  56:.\Generated_Source\PSoC5/isr_TS.c **** *
  57:.\Generated_Source\PSoC5/isr_TS.c **** * Parameters:  
  58:.\Generated_Source\PSoC5/isr_TS.c **** *   None
  59:.\Generated_Source\PSoC5/isr_TS.c **** *
  60:.\Generated_Source\PSoC5/isr_TS.c **** * Return:
  61:.\Generated_Source\PSoC5/isr_TS.c **** *   None
  62:.\Generated_Source\PSoC5/isr_TS.c **** *
  63:.\Generated_Source\PSoC5/isr_TS.c **** *******************************************************************************/
  64:.\Generated_Source\PSoC5/isr_TS.c **** void isr_TS_Start(void)
  65:.\Generated_Source\PSoC5/isr_TS.c **** {
  27              		.loc 1 65 0
  28              		.cfi_startproc
  29              		@ args = 0, pretend = 0, frame = 0
  30              		@ frame_needed = 1, uses_anonymous_args = 0
  31 0000 80B5     		push	{r7, lr}
  32              		.cfi_def_cfa_offset 8
  33              		.cfi_offset 7, -8
  34              		.cfi_offset 14, -4
  35 0002 00AF     		add	r7, sp, #0
  36              		.cfi_def_cfa_register 7
  66:.\Generated_Source\PSoC5/isr_TS.c ****     /* For all we know the interrupt is active. */
  67:.\Generated_Source\PSoC5/isr_TS.c ****     isr_TS_Disable();
  37              		.loc 1 67 0
  38 0004 FFF7FEFF 		bl	isr_TS_Disable
  68:.\Generated_Source\PSoC5/isr_TS.c **** 
  69:.\Generated_Source\PSoC5/isr_TS.c ****     /* Set the ISR to point to the isr_TS Interrupt. */
  70:.\Generated_Source\PSoC5/isr_TS.c ****     isr_TS_SetVector(&isr_TS_Interrupt);
  39              		.loc 1 70 0
  40 0008 0448     		ldr	r0, .L2
  41 000a FFF7FEFF 		bl	isr_TS_SetVector
  71:.\Generated_Source\PSoC5/isr_TS.c **** 
  72:.\Generated_Source\PSoC5/isr_TS.c ****     /* Set the priority. */
  73:.\Generated_Source\PSoC5/isr_TS.c ****     isr_TS_SetPriority((uint8)isr_TS_INTC_PRIOR_NUMBER);
ARM GAS  C:\Users\patel\AppData\Local\Temp\cctFFzTN.s 			page 3


  42              		.loc 1 73 0
  43 000e 0720     		movs	r0, #7
  44 0010 FFF7FEFF 		bl	isr_TS_SetPriority
  74:.\Generated_Source\PSoC5/isr_TS.c **** 
  75:.\Generated_Source\PSoC5/isr_TS.c ****     /* Enable it. */
  76:.\Generated_Source\PSoC5/isr_TS.c ****     isr_TS_Enable();
  45              		.loc 1 76 0
  46 0014 FFF7FEFF 		bl	isr_TS_Enable
  77:.\Generated_Source\PSoC5/isr_TS.c **** }
  47              		.loc 1 77 0
  48 0018 80BD     		pop	{r7, pc}
  49              	.L3:
  50 001a 00BF     		.align	2
  51              	.L2:
  52 001c 00000000 		.word	isr_TS_Interrupt
  53              		.cfi_endproc
  54              	.LFE0:
  55              		.size	isr_TS_Start, .-isr_TS_Start
  56              		.section	.text.isr_TS_StartEx,"ax",%progbits
  57              		.align	2
  58              		.global	isr_TS_StartEx
  59              		.thumb
  60              		.thumb_func
  61              		.type	isr_TS_StartEx, %function
  62              	isr_TS_StartEx:
  63              	.LFB1:
  78:.\Generated_Source\PSoC5/isr_TS.c **** 
  79:.\Generated_Source\PSoC5/isr_TS.c **** 
  80:.\Generated_Source\PSoC5/isr_TS.c **** /*******************************************************************************
  81:.\Generated_Source\PSoC5/isr_TS.c **** * Function Name: isr_TS_StartEx
  82:.\Generated_Source\PSoC5/isr_TS.c **** ********************************************************************************
  83:.\Generated_Source\PSoC5/isr_TS.c **** *
  84:.\Generated_Source\PSoC5/isr_TS.c **** * Summary:
  85:.\Generated_Source\PSoC5/isr_TS.c **** *  Sets up the interrupt and enables it. This function disables the interrupt,
  86:.\Generated_Source\PSoC5/isr_TS.c **** *  sets the interrupt vector based on the address passed in, sets the priority 
  87:.\Generated_Source\PSoC5/isr_TS.c **** *  from the value in the Design Wide Resources Interrupt Editor, then enables 
  88:.\Generated_Source\PSoC5/isr_TS.c **** *  the interrupt to the interrupt controller.
  89:.\Generated_Source\PSoC5/isr_TS.c **** *  
  90:.\Generated_Source\PSoC5/isr_TS.c **** *  When defining ISR functions, the CY_ISR and CY_ISR_PROTO macros should be 
  91:.\Generated_Source\PSoC5/isr_TS.c **** *  used to provide consistent definition across compilers:
  92:.\Generated_Source\PSoC5/isr_TS.c **** *  
  93:.\Generated_Source\PSoC5/isr_TS.c **** *  Function definition example:
  94:.\Generated_Source\PSoC5/isr_TS.c **** *   CY_ISR(MyISR)
  95:.\Generated_Source\PSoC5/isr_TS.c **** *   {
  96:.\Generated_Source\PSoC5/isr_TS.c **** *   }
  97:.\Generated_Source\PSoC5/isr_TS.c **** *   Function prototype example:
  98:.\Generated_Source\PSoC5/isr_TS.c **** *   CY_ISR_PROTO(MyISR);
  99:.\Generated_Source\PSoC5/isr_TS.c **** *
 100:.\Generated_Source\PSoC5/isr_TS.c **** * Parameters:  
 101:.\Generated_Source\PSoC5/isr_TS.c **** *   address: Address of the ISR to set in the interrupt vector table.
 102:.\Generated_Source\PSoC5/isr_TS.c **** *
 103:.\Generated_Source\PSoC5/isr_TS.c **** * Return:
 104:.\Generated_Source\PSoC5/isr_TS.c **** *   None
 105:.\Generated_Source\PSoC5/isr_TS.c **** *
 106:.\Generated_Source\PSoC5/isr_TS.c **** *******************************************************************************/
 107:.\Generated_Source\PSoC5/isr_TS.c **** void isr_TS_StartEx(cyisraddress address)
 108:.\Generated_Source\PSoC5/isr_TS.c **** {
ARM GAS  C:\Users\patel\AppData\Local\Temp\cctFFzTN.s 			page 4


  64              		.loc 1 108 0
  65              		.cfi_startproc
  66              		@ args = 0, pretend = 0, frame = 8
  67              		@ frame_needed = 1, uses_anonymous_args = 0
  68 0000 80B5     		push	{r7, lr}
  69              		.cfi_def_cfa_offset 8
  70              		.cfi_offset 7, -8
  71              		.cfi_offset 14, -4
  72 0002 82B0     		sub	sp, sp, #8
  73              		.cfi_def_cfa_offset 16
  74 0004 00AF     		add	r7, sp, #0
  75              		.cfi_def_cfa_register 7
  76 0006 7860     		str	r0, [r7, #4]
 109:.\Generated_Source\PSoC5/isr_TS.c ****     /* For all we know the interrupt is active. */
 110:.\Generated_Source\PSoC5/isr_TS.c ****     isr_TS_Disable();
  77              		.loc 1 110 0
  78 0008 FFF7FEFF 		bl	isr_TS_Disable
 111:.\Generated_Source\PSoC5/isr_TS.c **** 
 112:.\Generated_Source\PSoC5/isr_TS.c ****     /* Set the ISR to point to the isr_TS Interrupt. */
 113:.\Generated_Source\PSoC5/isr_TS.c ****     isr_TS_SetVector(address);
  79              		.loc 1 113 0
  80 000c 7868     		ldr	r0, [r7, #4]
  81 000e FFF7FEFF 		bl	isr_TS_SetVector
 114:.\Generated_Source\PSoC5/isr_TS.c **** 
 115:.\Generated_Source\PSoC5/isr_TS.c ****     /* Set the priority. */
 116:.\Generated_Source\PSoC5/isr_TS.c ****     isr_TS_SetPriority((uint8)isr_TS_INTC_PRIOR_NUMBER);
  82              		.loc 1 116 0
  83 0012 0720     		movs	r0, #7
  84 0014 FFF7FEFF 		bl	isr_TS_SetPriority
 117:.\Generated_Source\PSoC5/isr_TS.c **** 
 118:.\Generated_Source\PSoC5/isr_TS.c ****     /* Enable it. */
 119:.\Generated_Source\PSoC5/isr_TS.c ****     isr_TS_Enable();
  85              		.loc 1 119 0
  86 0018 FFF7FEFF 		bl	isr_TS_Enable
 120:.\Generated_Source\PSoC5/isr_TS.c **** }
  87              		.loc 1 120 0
  88 001c 0837     		adds	r7, r7, #8
  89              		.cfi_def_cfa_offset 8
  90 001e BD46     		mov	sp, r7
  91              		.cfi_def_cfa_register 13
  92              		@ sp needed
  93 0020 80BD     		pop	{r7, pc}
  94              		.cfi_endproc
  95              	.LFE1:
  96              		.size	isr_TS_StartEx, .-isr_TS_StartEx
  97 0022 00BF     		.section	.text.isr_TS_Stop,"ax",%progbits
  98              		.align	2
  99              		.global	isr_TS_Stop
 100              		.thumb
 101              		.thumb_func
 102              		.type	isr_TS_Stop, %function
 103              	isr_TS_Stop:
 104              	.LFB2:
 121:.\Generated_Source\PSoC5/isr_TS.c **** 
 122:.\Generated_Source\PSoC5/isr_TS.c **** 
 123:.\Generated_Source\PSoC5/isr_TS.c **** /*******************************************************************************
 124:.\Generated_Source\PSoC5/isr_TS.c **** * Function Name: isr_TS_Stop
ARM GAS  C:\Users\patel\AppData\Local\Temp\cctFFzTN.s 			page 5


 125:.\Generated_Source\PSoC5/isr_TS.c **** ********************************************************************************
 126:.\Generated_Source\PSoC5/isr_TS.c **** *
 127:.\Generated_Source\PSoC5/isr_TS.c **** * Summary:
 128:.\Generated_Source\PSoC5/isr_TS.c **** *   Disables and removes the interrupt.
 129:.\Generated_Source\PSoC5/isr_TS.c **** *
 130:.\Generated_Source\PSoC5/isr_TS.c **** * Parameters:  
 131:.\Generated_Source\PSoC5/isr_TS.c **** *   None
 132:.\Generated_Source\PSoC5/isr_TS.c **** *
 133:.\Generated_Source\PSoC5/isr_TS.c **** * Return:
 134:.\Generated_Source\PSoC5/isr_TS.c **** *   None
 135:.\Generated_Source\PSoC5/isr_TS.c **** *
 136:.\Generated_Source\PSoC5/isr_TS.c **** *******************************************************************************/
 137:.\Generated_Source\PSoC5/isr_TS.c **** void isr_TS_Stop(void)
 138:.\Generated_Source\PSoC5/isr_TS.c **** {
 105              		.loc 1 138 0
 106              		.cfi_startproc
 107              		@ args = 0, pretend = 0, frame = 0
 108              		@ frame_needed = 1, uses_anonymous_args = 0
 109 0000 80B5     		push	{r7, lr}
 110              		.cfi_def_cfa_offset 8
 111              		.cfi_offset 7, -8
 112              		.cfi_offset 14, -4
 113 0002 00AF     		add	r7, sp, #0
 114              		.cfi_def_cfa_register 7
 139:.\Generated_Source\PSoC5/isr_TS.c ****     /* Disable this interrupt. */
 140:.\Generated_Source\PSoC5/isr_TS.c ****     isr_TS_Disable();
 115              		.loc 1 140 0
 116 0004 FFF7FEFF 		bl	isr_TS_Disable
 141:.\Generated_Source\PSoC5/isr_TS.c **** 
 142:.\Generated_Source\PSoC5/isr_TS.c ****     /* Set the ISR to point to the passive one. */
 143:.\Generated_Source\PSoC5/isr_TS.c ****     isr_TS_SetVector(&IntDefaultHandler);
 117              		.loc 1 143 0
 118 0008 0148     		ldr	r0, .L6
 119 000a FFF7FEFF 		bl	isr_TS_SetVector
 144:.\Generated_Source\PSoC5/isr_TS.c **** }
 120              		.loc 1 144 0
 121 000e 80BD     		pop	{r7, pc}
 122              	.L7:
 123              		.align	2
 124              	.L6:
 125 0010 00000000 		.word	IntDefaultHandler
 126              		.cfi_endproc
 127              	.LFE2:
 128              		.size	isr_TS_Stop, .-isr_TS_Stop
 129              		.section	.text.isr_TS_Interrupt,"ax",%progbits
 130              		.align	2
 131              		.global	isr_TS_Interrupt
 132              		.thumb
 133              		.thumb_func
 134              		.type	isr_TS_Interrupt, %function
 135              	isr_TS_Interrupt:
 136              	.LFB3:
 145:.\Generated_Source\PSoC5/isr_TS.c **** 
 146:.\Generated_Source\PSoC5/isr_TS.c **** 
 147:.\Generated_Source\PSoC5/isr_TS.c **** /*******************************************************************************
 148:.\Generated_Source\PSoC5/isr_TS.c **** * Function Name: isr_TS_Interrupt
 149:.\Generated_Source\PSoC5/isr_TS.c **** ********************************************************************************
ARM GAS  C:\Users\patel\AppData\Local\Temp\cctFFzTN.s 			page 6


 150:.\Generated_Source\PSoC5/isr_TS.c **** *
 151:.\Generated_Source\PSoC5/isr_TS.c **** * Summary:
 152:.\Generated_Source\PSoC5/isr_TS.c **** *   The default Interrupt Service Routine for isr_TS.
 153:.\Generated_Source\PSoC5/isr_TS.c **** *
 154:.\Generated_Source\PSoC5/isr_TS.c **** *   Add custom code between the coments to keep the next version of this file
 155:.\Generated_Source\PSoC5/isr_TS.c **** *   from over writting your code.
 156:.\Generated_Source\PSoC5/isr_TS.c **** *
 157:.\Generated_Source\PSoC5/isr_TS.c **** * Parameters:  
 158:.\Generated_Source\PSoC5/isr_TS.c **** *
 159:.\Generated_Source\PSoC5/isr_TS.c **** * Return:
 160:.\Generated_Source\PSoC5/isr_TS.c **** *   None
 161:.\Generated_Source\PSoC5/isr_TS.c **** *
 162:.\Generated_Source\PSoC5/isr_TS.c **** *******************************************************************************/
 163:.\Generated_Source\PSoC5/isr_TS.c **** CY_ISR(isr_TS_Interrupt)
 164:.\Generated_Source\PSoC5/isr_TS.c **** {
 137              		.loc 1 164 0
 138              		.cfi_startproc
 139              		@ args = 0, pretend = 0, frame = 0
 140              		@ frame_needed = 1, uses_anonymous_args = 0
 141              		@ link register save eliminated.
 142 0000 80B4     		push	{r7}
 143              		.cfi_def_cfa_offset 4
 144              		.cfi_offset 7, -4
 145 0002 00AF     		add	r7, sp, #0
 146              		.cfi_def_cfa_register 7
 165:.\Generated_Source\PSoC5/isr_TS.c ****     #ifdef isr_TS_INTERRUPT_INTERRUPT_CALLBACK
 166:.\Generated_Source\PSoC5/isr_TS.c ****         isr_TS_Interrupt_InterruptCallback();
 167:.\Generated_Source\PSoC5/isr_TS.c ****     #endif /* isr_TS_INTERRUPT_INTERRUPT_CALLBACK */ 
 168:.\Generated_Source\PSoC5/isr_TS.c **** 
 169:.\Generated_Source\PSoC5/isr_TS.c ****     /*  Place your Interrupt code here. */
 170:.\Generated_Source\PSoC5/isr_TS.c ****     /* `#START isr_TS_Interrupt` */
 171:.\Generated_Source\PSoC5/isr_TS.c ****     ts++;
 147              		.loc 1 171 0
 148 0004 064B     		ldr	r3, .L9
 149 0006 1B78     		ldrb	r3, [r3]	@ zero_extendqisi2
 150 0008 0133     		adds	r3, r3, #1
 151 000a DAB2     		uxtb	r2, r3
 152 000c 044B     		ldr	r3, .L9
 153 000e 1A70     		strb	r2, [r3]
 172:.\Generated_Source\PSoC5/isr_TS.c ****     
 173:.\Generated_Source\PSoC5/isr_TS.c ****     timerOverflow_flag = 1;
 154              		.loc 1 173 0
 155 0010 044B     		ldr	r3, .L9+4
 156 0012 0122     		movs	r2, #1
 157 0014 1A70     		strb	r2, [r3]
 174:.\Generated_Source\PSoC5/isr_TS.c ****     /* `#END` */
 175:.\Generated_Source\PSoC5/isr_TS.c **** }
 158              		.loc 1 175 0
 159 0016 BD46     		mov	sp, r7
 160              		.cfi_def_cfa_register 13
 161              		@ sp needed
 162 0018 5DF8047B 		ldr	r7, [sp], #4
 163              		.cfi_restore 7
 164              		.cfi_def_cfa_offset 0
 165 001c 7047     		bx	lr
 166              	.L10:
 167 001e 00BF     		.align	2
ARM GAS  C:\Users\patel\AppData\Local\Temp\cctFFzTN.s 			page 7


 168              	.L9:
 169 0020 00000000 		.word	ts
 170 0024 00000000 		.word	timerOverflow_flag
 171              		.cfi_endproc
 172              	.LFE3:
 173              		.size	isr_TS_Interrupt, .-isr_TS_Interrupt
 174              		.section	.text.isr_TS_SetVector,"ax",%progbits
 175              		.align	2
 176              		.global	isr_TS_SetVector
 177              		.thumb
 178              		.thumb_func
 179              		.type	isr_TS_SetVector, %function
 180              	isr_TS_SetVector:
 181              	.LFB4:
 176:.\Generated_Source\PSoC5/isr_TS.c **** 
 177:.\Generated_Source\PSoC5/isr_TS.c **** 
 178:.\Generated_Source\PSoC5/isr_TS.c **** /*******************************************************************************
 179:.\Generated_Source\PSoC5/isr_TS.c **** * Function Name: isr_TS_SetVector
 180:.\Generated_Source\PSoC5/isr_TS.c **** ********************************************************************************
 181:.\Generated_Source\PSoC5/isr_TS.c **** *
 182:.\Generated_Source\PSoC5/isr_TS.c **** * Summary:
 183:.\Generated_Source\PSoC5/isr_TS.c **** *   Change the ISR vector for the Interrupt. Note calling isr_TS_Start
 184:.\Generated_Source\PSoC5/isr_TS.c **** *   will override any effect this method would have had. To set the vector 
 185:.\Generated_Source\PSoC5/isr_TS.c **** *   before the component has been started use isr_TS_StartEx instead.
 186:.\Generated_Source\PSoC5/isr_TS.c **** * 
 187:.\Generated_Source\PSoC5/isr_TS.c **** *   When defining ISR functions, the CY_ISR and CY_ISR_PROTO macros should be 
 188:.\Generated_Source\PSoC5/isr_TS.c **** *   used to provide consistent definition across compilers:
 189:.\Generated_Source\PSoC5/isr_TS.c **** *
 190:.\Generated_Source\PSoC5/isr_TS.c **** *   Function definition example:
 191:.\Generated_Source\PSoC5/isr_TS.c **** *   CY_ISR(MyISR)
 192:.\Generated_Source\PSoC5/isr_TS.c **** *   {
 193:.\Generated_Source\PSoC5/isr_TS.c **** *   }
 194:.\Generated_Source\PSoC5/isr_TS.c **** *
 195:.\Generated_Source\PSoC5/isr_TS.c **** *   Function prototype example:
 196:.\Generated_Source\PSoC5/isr_TS.c **** *     CY_ISR_PROTO(MyISR);
 197:.\Generated_Source\PSoC5/isr_TS.c **** *
 198:.\Generated_Source\PSoC5/isr_TS.c **** * Parameters:
 199:.\Generated_Source\PSoC5/isr_TS.c **** *   address: Address of the ISR to set in the interrupt vector table.
 200:.\Generated_Source\PSoC5/isr_TS.c **** *
 201:.\Generated_Source\PSoC5/isr_TS.c **** * Return:
 202:.\Generated_Source\PSoC5/isr_TS.c **** *   None
 203:.\Generated_Source\PSoC5/isr_TS.c **** *
 204:.\Generated_Source\PSoC5/isr_TS.c **** *******************************************************************************/
 205:.\Generated_Source\PSoC5/isr_TS.c **** void isr_TS_SetVector(cyisraddress address)
 206:.\Generated_Source\PSoC5/isr_TS.c **** {
 182              		.loc 1 206 0
 183              		.cfi_startproc
 184              		@ args = 0, pretend = 0, frame = 16
 185              		@ frame_needed = 1, uses_anonymous_args = 0
 186              		@ link register save eliminated.
 187 0000 80B4     		push	{r7}
 188              		.cfi_def_cfa_offset 4
 189              		.cfi_offset 7, -4
 190 0002 85B0     		sub	sp, sp, #20
 191              		.cfi_def_cfa_offset 24
 192 0004 00AF     		add	r7, sp, #0
 193              		.cfi_def_cfa_register 7
ARM GAS  C:\Users\patel\AppData\Local\Temp\cctFFzTN.s 			page 8


 194 0006 7860     		str	r0, [r7, #4]
 207:.\Generated_Source\PSoC5/isr_TS.c ****     cyisraddress * ramVectorTable;
 208:.\Generated_Source\PSoC5/isr_TS.c **** 
 209:.\Generated_Source\PSoC5/isr_TS.c ****     ramVectorTable = (cyisraddress *) *CYINT_VECT_TABLE;
 195              		.loc 1 209 0
 196 0008 054B     		ldr	r3, .L12
 197 000a 1B68     		ldr	r3, [r3]
 198 000c FB60     		str	r3, [r7, #12]
 210:.\Generated_Source\PSoC5/isr_TS.c **** 
 211:.\Generated_Source\PSoC5/isr_TS.c ****     ramVectorTable[CYINT_IRQ_BASE + (uint32)isr_TS__INTC_NUMBER] = address;
 199              		.loc 1 211 0
 200 000e FB68     		ldr	r3, [r7, #12]
 201 0010 6033     		adds	r3, r3, #96
 202 0012 7A68     		ldr	r2, [r7, #4]
 203 0014 1A60     		str	r2, [r3]
 212:.\Generated_Source\PSoC5/isr_TS.c **** }
 204              		.loc 1 212 0
 205 0016 1437     		adds	r7, r7, #20
 206              		.cfi_def_cfa_offset 4
 207 0018 BD46     		mov	sp, r7
 208              		.cfi_def_cfa_register 13
 209              		@ sp needed
 210 001a 5DF8047B 		ldr	r7, [sp], #4
 211              		.cfi_restore 7
 212              		.cfi_def_cfa_offset 0
 213 001e 7047     		bx	lr
 214              	.L13:
 215              		.align	2
 216              	.L12:
 217 0020 08ED00E0 		.word	-536810232
 218              		.cfi_endproc
 219              	.LFE4:
 220              		.size	isr_TS_SetVector, .-isr_TS_SetVector
 221              		.section	.text.isr_TS_GetVector,"ax",%progbits
 222              		.align	2
 223              		.global	isr_TS_GetVector
 224              		.thumb
 225              		.thumb_func
 226              		.type	isr_TS_GetVector, %function
 227              	isr_TS_GetVector:
 228              	.LFB5:
 213:.\Generated_Source\PSoC5/isr_TS.c **** 
 214:.\Generated_Source\PSoC5/isr_TS.c **** 
 215:.\Generated_Source\PSoC5/isr_TS.c **** /*******************************************************************************
 216:.\Generated_Source\PSoC5/isr_TS.c **** * Function Name: isr_TS_GetVector
 217:.\Generated_Source\PSoC5/isr_TS.c **** ********************************************************************************
 218:.\Generated_Source\PSoC5/isr_TS.c **** *
 219:.\Generated_Source\PSoC5/isr_TS.c **** * Summary:
 220:.\Generated_Source\PSoC5/isr_TS.c **** *   Gets the "address" of the current ISR vector for the Interrupt.
 221:.\Generated_Source\PSoC5/isr_TS.c **** *
 222:.\Generated_Source\PSoC5/isr_TS.c **** * Parameters:
 223:.\Generated_Source\PSoC5/isr_TS.c **** *   None
 224:.\Generated_Source\PSoC5/isr_TS.c **** *
 225:.\Generated_Source\PSoC5/isr_TS.c **** * Return:
 226:.\Generated_Source\PSoC5/isr_TS.c **** *   Address of the ISR in the interrupt vector table.
 227:.\Generated_Source\PSoC5/isr_TS.c **** *
 228:.\Generated_Source\PSoC5/isr_TS.c **** *******************************************************************************/
ARM GAS  C:\Users\patel\AppData\Local\Temp\cctFFzTN.s 			page 9


 229:.\Generated_Source\PSoC5/isr_TS.c **** cyisraddress isr_TS_GetVector(void)
 230:.\Generated_Source\PSoC5/isr_TS.c **** {
 229              		.loc 1 230 0
 230              		.cfi_startproc
 231              		@ args = 0, pretend = 0, frame = 8
 232              		@ frame_needed = 1, uses_anonymous_args = 0
 233              		@ link register save eliminated.
 234 0000 80B4     		push	{r7}
 235              		.cfi_def_cfa_offset 4
 236              		.cfi_offset 7, -4
 237 0002 83B0     		sub	sp, sp, #12
 238              		.cfi_def_cfa_offset 16
 239 0004 00AF     		add	r7, sp, #0
 240              		.cfi_def_cfa_register 7
 231:.\Generated_Source\PSoC5/isr_TS.c ****     cyisraddress * ramVectorTable;
 232:.\Generated_Source\PSoC5/isr_TS.c **** 
 233:.\Generated_Source\PSoC5/isr_TS.c ****     ramVectorTable = (cyisraddress *) *CYINT_VECT_TABLE;
 241              		.loc 1 233 0
 242 0006 054B     		ldr	r3, .L16
 243 0008 1B68     		ldr	r3, [r3]
 244 000a 7B60     		str	r3, [r7, #4]
 234:.\Generated_Source\PSoC5/isr_TS.c **** 
 235:.\Generated_Source\PSoC5/isr_TS.c ****     return ramVectorTable[CYINT_IRQ_BASE + (uint32)isr_TS__INTC_NUMBER];
 245              		.loc 1 235 0
 246 000c 7B68     		ldr	r3, [r7, #4]
 247 000e 1B6E     		ldr	r3, [r3, #96]
 236:.\Generated_Source\PSoC5/isr_TS.c **** }
 248              		.loc 1 236 0
 249 0010 1846     		mov	r0, r3
 250 0012 0C37     		adds	r7, r7, #12
 251              		.cfi_def_cfa_offset 4
 252 0014 BD46     		mov	sp, r7
 253              		.cfi_def_cfa_register 13
 254              		@ sp needed
 255 0016 5DF8047B 		ldr	r7, [sp], #4
 256              		.cfi_restore 7
 257              		.cfi_def_cfa_offset 0
 258 001a 7047     		bx	lr
 259              	.L17:
 260              		.align	2
 261              	.L16:
 262 001c 08ED00E0 		.word	-536810232
 263              		.cfi_endproc
 264              	.LFE5:
 265              		.size	isr_TS_GetVector, .-isr_TS_GetVector
 266              		.section	.text.isr_TS_SetPriority,"ax",%progbits
 267              		.align	2
 268              		.global	isr_TS_SetPriority
 269              		.thumb
 270              		.thumb_func
 271              		.type	isr_TS_SetPriority, %function
 272              	isr_TS_SetPriority:
 273              	.LFB6:
 237:.\Generated_Source\PSoC5/isr_TS.c **** 
 238:.\Generated_Source\PSoC5/isr_TS.c **** 
 239:.\Generated_Source\PSoC5/isr_TS.c **** /*******************************************************************************
 240:.\Generated_Source\PSoC5/isr_TS.c **** * Function Name: isr_TS_SetPriority
ARM GAS  C:\Users\patel\AppData\Local\Temp\cctFFzTN.s 			page 10


 241:.\Generated_Source\PSoC5/isr_TS.c **** ********************************************************************************
 242:.\Generated_Source\PSoC5/isr_TS.c **** *
 243:.\Generated_Source\PSoC5/isr_TS.c **** * Summary:
 244:.\Generated_Source\PSoC5/isr_TS.c **** *   Sets the Priority of the Interrupt. 
 245:.\Generated_Source\PSoC5/isr_TS.c **** *
 246:.\Generated_Source\PSoC5/isr_TS.c **** *   Note calling isr_TS_Start or isr_TS_StartEx will 
 247:.\Generated_Source\PSoC5/isr_TS.c **** *   override any effect this API would have had. This API should only be called
 248:.\Generated_Source\PSoC5/isr_TS.c **** *   after isr_TS_Start or isr_TS_StartEx has been called. 
 249:.\Generated_Source\PSoC5/isr_TS.c **** *   To set the initial priority for the component, use the Design-Wide Resources
 250:.\Generated_Source\PSoC5/isr_TS.c **** *   Interrupt Editor.
 251:.\Generated_Source\PSoC5/isr_TS.c **** *
 252:.\Generated_Source\PSoC5/isr_TS.c **** *   Note This API has no effect on Non-maskable interrupt NMI).
 253:.\Generated_Source\PSoC5/isr_TS.c **** *
 254:.\Generated_Source\PSoC5/isr_TS.c **** * Parameters:
 255:.\Generated_Source\PSoC5/isr_TS.c **** *   priority: Priority of the interrupt, 0 being the highest priority
 256:.\Generated_Source\PSoC5/isr_TS.c **** *             PSoC 3 and PSoC 5LP: Priority is from 0 to 7.
 257:.\Generated_Source\PSoC5/isr_TS.c **** *             PSoC 4: Priority is from 0 to 3.
 258:.\Generated_Source\PSoC5/isr_TS.c **** *
 259:.\Generated_Source\PSoC5/isr_TS.c **** * Return:
 260:.\Generated_Source\PSoC5/isr_TS.c **** *   None
 261:.\Generated_Source\PSoC5/isr_TS.c **** *
 262:.\Generated_Source\PSoC5/isr_TS.c **** *******************************************************************************/
 263:.\Generated_Source\PSoC5/isr_TS.c **** void isr_TS_SetPriority(uint8 priority)
 264:.\Generated_Source\PSoC5/isr_TS.c **** {
 274              		.loc 1 264 0
 275              		.cfi_startproc
 276              		@ args = 0, pretend = 0, frame = 8
 277              		@ frame_needed = 1, uses_anonymous_args = 0
 278              		@ link register save eliminated.
 279 0000 80B4     		push	{r7}
 280              		.cfi_def_cfa_offset 4
 281              		.cfi_offset 7, -4
 282 0002 83B0     		sub	sp, sp, #12
 283              		.cfi_def_cfa_offset 16
 284 0004 00AF     		add	r7, sp, #0
 285              		.cfi_def_cfa_register 7
 286 0006 0346     		mov	r3, r0
 287 0008 FB71     		strb	r3, [r7, #7]
 265:.\Generated_Source\PSoC5/isr_TS.c ****     *isr_TS_INTC_PRIOR = priority << 5;
 288              		.loc 1 265 0
 289 000a 054A     		ldr	r2, .L19
 290 000c FB79     		ldrb	r3, [r7, #7]
 291 000e 5B01     		lsls	r3, r3, #5
 292 0010 DBB2     		uxtb	r3, r3
 293 0012 1370     		strb	r3, [r2]
 266:.\Generated_Source\PSoC5/isr_TS.c **** }
 294              		.loc 1 266 0
 295 0014 0C37     		adds	r7, r7, #12
 296              		.cfi_def_cfa_offset 4
 297 0016 BD46     		mov	sp, r7
 298              		.cfi_def_cfa_register 13
 299              		@ sp needed
 300 0018 5DF8047B 		ldr	r7, [sp], #4
 301              		.cfi_restore 7
 302              		.cfi_def_cfa_offset 0
 303 001c 7047     		bx	lr
 304              	.L20:
ARM GAS  C:\Users\patel\AppData\Local\Temp\cctFFzTN.s 			page 11


 305 001e 00BF     		.align	2
 306              	.L19:
 307 0020 08E400E0 		.word	-536812536
 308              		.cfi_endproc
 309              	.LFE6:
 310              		.size	isr_TS_SetPriority, .-isr_TS_SetPriority
 311              		.section	.text.isr_TS_GetPriority,"ax",%progbits
 312              		.align	2
 313              		.global	isr_TS_GetPriority
 314              		.thumb
 315              		.thumb_func
 316              		.type	isr_TS_GetPriority, %function
 317              	isr_TS_GetPriority:
 318              	.LFB7:
 267:.\Generated_Source\PSoC5/isr_TS.c **** 
 268:.\Generated_Source\PSoC5/isr_TS.c **** 
 269:.\Generated_Source\PSoC5/isr_TS.c **** /*******************************************************************************
 270:.\Generated_Source\PSoC5/isr_TS.c **** * Function Name: isr_TS_GetPriority
 271:.\Generated_Source\PSoC5/isr_TS.c **** ********************************************************************************
 272:.\Generated_Source\PSoC5/isr_TS.c **** *
 273:.\Generated_Source\PSoC5/isr_TS.c **** * Summary:
 274:.\Generated_Source\PSoC5/isr_TS.c **** *   Gets the Priority of the Interrupt.
 275:.\Generated_Source\PSoC5/isr_TS.c **** *
 276:.\Generated_Source\PSoC5/isr_TS.c **** * Parameters:
 277:.\Generated_Source\PSoC5/isr_TS.c **** *   None
 278:.\Generated_Source\PSoC5/isr_TS.c **** *
 279:.\Generated_Source\PSoC5/isr_TS.c **** * Return:
 280:.\Generated_Source\PSoC5/isr_TS.c **** *   Priority of the interrupt, 0 being the highest priority
 281:.\Generated_Source\PSoC5/isr_TS.c **** *    PSoC 3 and PSoC 5LP: Priority is from 0 to 7.
 282:.\Generated_Source\PSoC5/isr_TS.c **** *    PSoC 4: Priority is from 0 to 3.
 283:.\Generated_Source\PSoC5/isr_TS.c **** *
 284:.\Generated_Source\PSoC5/isr_TS.c **** *******************************************************************************/
 285:.\Generated_Source\PSoC5/isr_TS.c **** uint8 isr_TS_GetPriority(void)
 286:.\Generated_Source\PSoC5/isr_TS.c **** {
 319              		.loc 1 286 0
 320              		.cfi_startproc
 321              		@ args = 0, pretend = 0, frame = 8
 322              		@ frame_needed = 1, uses_anonymous_args = 0
 323              		@ link register save eliminated.
 324 0000 80B4     		push	{r7}
 325              		.cfi_def_cfa_offset 4
 326              		.cfi_offset 7, -4
 327 0002 83B0     		sub	sp, sp, #12
 328              		.cfi_def_cfa_offset 16
 329 0004 00AF     		add	r7, sp, #0
 330              		.cfi_def_cfa_register 7
 287:.\Generated_Source\PSoC5/isr_TS.c ****     uint8 priority;
 288:.\Generated_Source\PSoC5/isr_TS.c **** 
 289:.\Generated_Source\PSoC5/isr_TS.c **** 
 290:.\Generated_Source\PSoC5/isr_TS.c ****     priority = *isr_TS_INTC_PRIOR >> 5;
 331              		.loc 1 290 0
 332 0006 064B     		ldr	r3, .L23
 333 0008 1B78     		ldrb	r3, [r3]
 334 000a DBB2     		uxtb	r3, r3
 335 000c 5B09     		lsrs	r3, r3, #5
 336 000e FB71     		strb	r3, [r7, #7]
 291:.\Generated_Source\PSoC5/isr_TS.c **** 
ARM GAS  C:\Users\patel\AppData\Local\Temp\cctFFzTN.s 			page 12


 292:.\Generated_Source\PSoC5/isr_TS.c ****     return priority;
 337              		.loc 1 292 0
 338 0010 FB79     		ldrb	r3, [r7, #7]	@ zero_extendqisi2
 293:.\Generated_Source\PSoC5/isr_TS.c **** }
 339              		.loc 1 293 0
 340 0012 1846     		mov	r0, r3
 341 0014 0C37     		adds	r7, r7, #12
 342              		.cfi_def_cfa_offset 4
 343 0016 BD46     		mov	sp, r7
 344              		.cfi_def_cfa_register 13
 345              		@ sp needed
 346 0018 5DF8047B 		ldr	r7, [sp], #4
 347              		.cfi_restore 7
 348              		.cfi_def_cfa_offset 0
 349 001c 7047     		bx	lr
 350              	.L24:
 351 001e 00BF     		.align	2
 352              	.L23:
 353 0020 08E400E0 		.word	-536812536
 354              		.cfi_endproc
 355              	.LFE7:
 356              		.size	isr_TS_GetPriority, .-isr_TS_GetPriority
 357              		.section	.text.isr_TS_Enable,"ax",%progbits
 358              		.align	2
 359              		.global	isr_TS_Enable
 360              		.thumb
 361              		.thumb_func
 362              		.type	isr_TS_Enable, %function
 363              	isr_TS_Enable:
 364              	.LFB8:
 294:.\Generated_Source\PSoC5/isr_TS.c **** 
 295:.\Generated_Source\PSoC5/isr_TS.c **** 
 296:.\Generated_Source\PSoC5/isr_TS.c **** /*******************************************************************************
 297:.\Generated_Source\PSoC5/isr_TS.c **** * Function Name: isr_TS_Enable
 298:.\Generated_Source\PSoC5/isr_TS.c **** ********************************************************************************
 299:.\Generated_Source\PSoC5/isr_TS.c **** *
 300:.\Generated_Source\PSoC5/isr_TS.c **** * Summary:
 301:.\Generated_Source\PSoC5/isr_TS.c **** *   Enables the interrupt to the interrupt controller. Do not call this function
 302:.\Generated_Source\PSoC5/isr_TS.c **** *   unless ISR_Start() has been called or the functionality of the ISR_Start() 
 303:.\Generated_Source\PSoC5/isr_TS.c **** *   function, which sets the vector and the priority, has been called.
 304:.\Generated_Source\PSoC5/isr_TS.c **** *
 305:.\Generated_Source\PSoC5/isr_TS.c **** * Parameters:
 306:.\Generated_Source\PSoC5/isr_TS.c **** *   None
 307:.\Generated_Source\PSoC5/isr_TS.c **** *
 308:.\Generated_Source\PSoC5/isr_TS.c **** * Return:
 309:.\Generated_Source\PSoC5/isr_TS.c **** *   None
 310:.\Generated_Source\PSoC5/isr_TS.c **** *
 311:.\Generated_Source\PSoC5/isr_TS.c **** *******************************************************************************/
 312:.\Generated_Source\PSoC5/isr_TS.c **** void isr_TS_Enable(void)
 313:.\Generated_Source\PSoC5/isr_TS.c **** {
 365              		.loc 1 313 0
 366              		.cfi_startproc
 367              		@ args = 0, pretend = 0, frame = 0
 368              		@ frame_needed = 1, uses_anonymous_args = 0
 369              		@ link register save eliminated.
 370 0000 80B4     		push	{r7}
 371              		.cfi_def_cfa_offset 4
ARM GAS  C:\Users\patel\AppData\Local\Temp\cctFFzTN.s 			page 13


 372              		.cfi_offset 7, -4
 373 0002 00AF     		add	r7, sp, #0
 374              		.cfi_def_cfa_register 7
 314:.\Generated_Source\PSoC5/isr_TS.c ****     /* Enable the general interrupt. */
 315:.\Generated_Source\PSoC5/isr_TS.c ****     *isr_TS_INTC_SET_EN = isr_TS__INTC_MASK;
 375              		.loc 1 315 0
 376 0004 034B     		ldr	r3, .L26
 377 0006 4FF48072 		mov	r2, #256
 378 000a 1A60     		str	r2, [r3]
 316:.\Generated_Source\PSoC5/isr_TS.c **** }
 379              		.loc 1 316 0
 380 000c BD46     		mov	sp, r7
 381              		.cfi_def_cfa_register 13
 382              		@ sp needed
 383 000e 5DF8047B 		ldr	r7, [sp], #4
 384              		.cfi_restore 7
 385              		.cfi_def_cfa_offset 0
 386 0012 7047     		bx	lr
 387              	.L27:
 388              		.align	2
 389              	.L26:
 390 0014 00E100E0 		.word	-536813312
 391              		.cfi_endproc
 392              	.LFE8:
 393              		.size	isr_TS_Enable, .-isr_TS_Enable
 394              		.section	.text.isr_TS_GetState,"ax",%progbits
 395              		.align	2
 396              		.global	isr_TS_GetState
 397              		.thumb
 398              		.thumb_func
 399              		.type	isr_TS_GetState, %function
 400              	isr_TS_GetState:
 401              	.LFB9:
 317:.\Generated_Source\PSoC5/isr_TS.c **** 
 318:.\Generated_Source\PSoC5/isr_TS.c **** 
 319:.\Generated_Source\PSoC5/isr_TS.c **** /*******************************************************************************
 320:.\Generated_Source\PSoC5/isr_TS.c **** * Function Name: isr_TS_GetState
 321:.\Generated_Source\PSoC5/isr_TS.c **** ********************************************************************************
 322:.\Generated_Source\PSoC5/isr_TS.c **** *
 323:.\Generated_Source\PSoC5/isr_TS.c **** * Summary:
 324:.\Generated_Source\PSoC5/isr_TS.c **** *   Gets the state (enabled, disabled) of the Interrupt.
 325:.\Generated_Source\PSoC5/isr_TS.c **** *
 326:.\Generated_Source\PSoC5/isr_TS.c **** * Parameters:
 327:.\Generated_Source\PSoC5/isr_TS.c **** *   None
 328:.\Generated_Source\PSoC5/isr_TS.c **** *
 329:.\Generated_Source\PSoC5/isr_TS.c **** * Return:
 330:.\Generated_Source\PSoC5/isr_TS.c **** *   1 if enabled, 0 if disabled.
 331:.\Generated_Source\PSoC5/isr_TS.c **** *
 332:.\Generated_Source\PSoC5/isr_TS.c **** *******************************************************************************/
 333:.\Generated_Source\PSoC5/isr_TS.c **** uint8 isr_TS_GetState(void)
 334:.\Generated_Source\PSoC5/isr_TS.c **** {
 402              		.loc 1 334 0
 403              		.cfi_startproc
 404              		@ args = 0, pretend = 0, frame = 0
 405              		@ frame_needed = 1, uses_anonymous_args = 0
 406              		@ link register save eliminated.
 407 0000 80B4     		push	{r7}
ARM GAS  C:\Users\patel\AppData\Local\Temp\cctFFzTN.s 			page 14


 408              		.cfi_def_cfa_offset 4
 409              		.cfi_offset 7, -4
 410 0002 00AF     		add	r7, sp, #0
 411              		.cfi_def_cfa_register 7
 335:.\Generated_Source\PSoC5/isr_TS.c ****     /* Get the state of the general interrupt. */
 336:.\Generated_Source\PSoC5/isr_TS.c ****     return ((*isr_TS_INTC_SET_EN & (uint32)isr_TS__INTC_MASK) != 0u) ? 1u:0u;
 412              		.loc 1 336 0
 413 0004 064B     		ldr	r3, .L32
 414 0006 1B68     		ldr	r3, [r3]
 415 0008 03F48073 		and	r3, r3, #256
 416 000c 002B     		cmp	r3, #0
 417 000e 01D0     		beq	.L29
 418              		.loc 1 336 0 is_stmt 0 discriminator 1
 419 0010 0123     		movs	r3, #1
 420 0012 00E0     		b	.L30
 421              	.L29:
 422              		.loc 1 336 0 discriminator 2
 423 0014 0023     		movs	r3, #0
 424              	.L30:
 337:.\Generated_Source\PSoC5/isr_TS.c **** }
 425              		.loc 1 337 0 is_stmt 1 discriminator 4
 426 0016 1846     		mov	r0, r3
 427 0018 BD46     		mov	sp, r7
 428              		.cfi_def_cfa_register 13
 429              		@ sp needed
 430 001a 5DF8047B 		ldr	r7, [sp], #4
 431              		.cfi_restore 7
 432              		.cfi_def_cfa_offset 0
 433 001e 7047     		bx	lr
 434              	.L33:
 435              		.align	2
 436              	.L32:
 437 0020 00E100E0 		.word	-536813312
 438              		.cfi_endproc
 439              	.LFE9:
 440              		.size	isr_TS_GetState, .-isr_TS_GetState
 441              		.section	.text.isr_TS_Disable,"ax",%progbits
 442              		.align	2
 443              		.global	isr_TS_Disable
 444              		.thumb
 445              		.thumb_func
 446              		.type	isr_TS_Disable, %function
 447              	isr_TS_Disable:
 448              	.LFB10:
 338:.\Generated_Source\PSoC5/isr_TS.c **** 
 339:.\Generated_Source\PSoC5/isr_TS.c **** 
 340:.\Generated_Source\PSoC5/isr_TS.c **** /*******************************************************************************
 341:.\Generated_Source\PSoC5/isr_TS.c **** * Function Name: isr_TS_Disable
 342:.\Generated_Source\PSoC5/isr_TS.c **** ********************************************************************************
 343:.\Generated_Source\PSoC5/isr_TS.c **** *
 344:.\Generated_Source\PSoC5/isr_TS.c **** * Summary:
 345:.\Generated_Source\PSoC5/isr_TS.c **** *   Disables the Interrupt in the interrupt controller.
 346:.\Generated_Source\PSoC5/isr_TS.c **** *
 347:.\Generated_Source\PSoC5/isr_TS.c **** * Parameters:
 348:.\Generated_Source\PSoC5/isr_TS.c **** *   None
 349:.\Generated_Source\PSoC5/isr_TS.c **** *
 350:.\Generated_Source\PSoC5/isr_TS.c **** * Return:
ARM GAS  C:\Users\patel\AppData\Local\Temp\cctFFzTN.s 			page 15


 351:.\Generated_Source\PSoC5/isr_TS.c **** *   None
 352:.\Generated_Source\PSoC5/isr_TS.c **** *
 353:.\Generated_Source\PSoC5/isr_TS.c **** *******************************************************************************/
 354:.\Generated_Source\PSoC5/isr_TS.c **** void isr_TS_Disable(void)
 355:.\Generated_Source\PSoC5/isr_TS.c **** {
 449              		.loc 1 355 0
 450              		.cfi_startproc
 451              		@ args = 0, pretend = 0, frame = 0
 452              		@ frame_needed = 1, uses_anonymous_args = 0
 453              		@ link register save eliminated.
 454 0000 80B4     		push	{r7}
 455              		.cfi_def_cfa_offset 4
 456              		.cfi_offset 7, -4
 457 0002 00AF     		add	r7, sp, #0
 458              		.cfi_def_cfa_register 7
 356:.\Generated_Source\PSoC5/isr_TS.c ****     /* Disable the general interrupt. */
 357:.\Generated_Source\PSoC5/isr_TS.c ****     *isr_TS_INTC_CLR_EN = isr_TS__INTC_MASK;
 459              		.loc 1 357 0
 460 0004 034B     		ldr	r3, .L35
 461 0006 4FF48072 		mov	r2, #256
 462 000a 1A60     		str	r2, [r3]
 358:.\Generated_Source\PSoC5/isr_TS.c **** }
 463              		.loc 1 358 0
 464 000c BD46     		mov	sp, r7
 465              		.cfi_def_cfa_register 13
 466              		@ sp needed
 467 000e 5DF8047B 		ldr	r7, [sp], #4
 468              		.cfi_restore 7
 469              		.cfi_def_cfa_offset 0
 470 0012 7047     		bx	lr
 471              	.L36:
 472              		.align	2
 473              	.L35:
 474 0014 80E100E0 		.word	-536813184
 475              		.cfi_endproc
 476              	.LFE10:
 477              		.size	isr_TS_Disable, .-isr_TS_Disable
 478              		.section	.text.isr_TS_SetPending,"ax",%progbits
 479              		.align	2
 480              		.global	isr_TS_SetPending
 481              		.thumb
 482              		.thumb_func
 483              		.type	isr_TS_SetPending, %function
 484              	isr_TS_SetPending:
 485              	.LFB11:
 359:.\Generated_Source\PSoC5/isr_TS.c **** 
 360:.\Generated_Source\PSoC5/isr_TS.c **** 
 361:.\Generated_Source\PSoC5/isr_TS.c **** /*******************************************************************************
 362:.\Generated_Source\PSoC5/isr_TS.c **** * Function Name: isr_TS_SetPending
 363:.\Generated_Source\PSoC5/isr_TS.c **** ********************************************************************************
 364:.\Generated_Source\PSoC5/isr_TS.c **** *
 365:.\Generated_Source\PSoC5/isr_TS.c **** * Summary:
 366:.\Generated_Source\PSoC5/isr_TS.c **** *   Causes the Interrupt to enter the pending state, a software method of
 367:.\Generated_Source\PSoC5/isr_TS.c **** *   generating the interrupt.
 368:.\Generated_Source\PSoC5/isr_TS.c **** *
 369:.\Generated_Source\PSoC5/isr_TS.c **** * Parameters:
 370:.\Generated_Source\PSoC5/isr_TS.c **** *   None
ARM GAS  C:\Users\patel\AppData\Local\Temp\cctFFzTN.s 			page 16


 371:.\Generated_Source\PSoC5/isr_TS.c **** *
 372:.\Generated_Source\PSoC5/isr_TS.c **** * Return:
 373:.\Generated_Source\PSoC5/isr_TS.c **** *   None
 374:.\Generated_Source\PSoC5/isr_TS.c **** *
 375:.\Generated_Source\PSoC5/isr_TS.c **** * Side Effects:
 376:.\Generated_Source\PSoC5/isr_TS.c **** *   If interrupts are enabled and the interrupt is set up properly, the ISR is
 377:.\Generated_Source\PSoC5/isr_TS.c **** *   entered (depending on the priority of this interrupt and other pending 
 378:.\Generated_Source\PSoC5/isr_TS.c **** *   interrupts).
 379:.\Generated_Source\PSoC5/isr_TS.c **** *
 380:.\Generated_Source\PSoC5/isr_TS.c **** *******************************************************************************/
 381:.\Generated_Source\PSoC5/isr_TS.c **** void isr_TS_SetPending(void)
 382:.\Generated_Source\PSoC5/isr_TS.c **** {
 486              		.loc 1 382 0
 487              		.cfi_startproc
 488              		@ args = 0, pretend = 0, frame = 0
 489              		@ frame_needed = 1, uses_anonymous_args = 0
 490              		@ link register save eliminated.
 491 0000 80B4     		push	{r7}
 492              		.cfi_def_cfa_offset 4
 493              		.cfi_offset 7, -4
 494 0002 00AF     		add	r7, sp, #0
 495              		.cfi_def_cfa_register 7
 383:.\Generated_Source\PSoC5/isr_TS.c ****     *isr_TS_INTC_SET_PD = isr_TS__INTC_MASK;
 496              		.loc 1 383 0
 497 0004 034B     		ldr	r3, .L38
 498 0006 4FF48072 		mov	r2, #256
 499 000a 1A60     		str	r2, [r3]
 384:.\Generated_Source\PSoC5/isr_TS.c **** }
 500              		.loc 1 384 0
 501 000c BD46     		mov	sp, r7
 502              		.cfi_def_cfa_register 13
 503              		@ sp needed
 504 000e 5DF8047B 		ldr	r7, [sp], #4
 505              		.cfi_restore 7
 506              		.cfi_def_cfa_offset 0
 507 0012 7047     		bx	lr
 508              	.L39:
 509              		.align	2
 510              	.L38:
 511 0014 00E200E0 		.word	-536813056
 512              		.cfi_endproc
 513              	.LFE11:
 514              		.size	isr_TS_SetPending, .-isr_TS_SetPending
 515              		.section	.text.isr_TS_ClearPending,"ax",%progbits
 516              		.align	2
 517              		.global	isr_TS_ClearPending
 518              		.thumb
 519              		.thumb_func
 520              		.type	isr_TS_ClearPending, %function
 521              	isr_TS_ClearPending:
 522              	.LFB12:
 385:.\Generated_Source\PSoC5/isr_TS.c **** 
 386:.\Generated_Source\PSoC5/isr_TS.c **** 
 387:.\Generated_Source\PSoC5/isr_TS.c **** /*******************************************************************************
 388:.\Generated_Source\PSoC5/isr_TS.c **** * Function Name: isr_TS_ClearPending
 389:.\Generated_Source\PSoC5/isr_TS.c **** ********************************************************************************
 390:.\Generated_Source\PSoC5/isr_TS.c **** *
ARM GAS  C:\Users\patel\AppData\Local\Temp\cctFFzTN.s 			page 17


 391:.\Generated_Source\PSoC5/isr_TS.c **** * Summary:
 392:.\Generated_Source\PSoC5/isr_TS.c **** *   Clears a pending interrupt in the interrupt controller.
 393:.\Generated_Source\PSoC5/isr_TS.c **** *
 394:.\Generated_Source\PSoC5/isr_TS.c **** *   Note Some interrupt sources are clear-on-read and require the block 
 395:.\Generated_Source\PSoC5/isr_TS.c **** *   interrupt/status register to be read/cleared with the appropriate block API 
 396:.\Generated_Source\PSoC5/isr_TS.c **** *   (GPIO, UART, and so on). Otherwise the ISR will continue to remain in 
 397:.\Generated_Source\PSoC5/isr_TS.c **** *   pending state even though the interrupt itself is cleared using this API.
 398:.\Generated_Source\PSoC5/isr_TS.c **** *
 399:.\Generated_Source\PSoC5/isr_TS.c **** * Parameters:
 400:.\Generated_Source\PSoC5/isr_TS.c **** *   None
 401:.\Generated_Source\PSoC5/isr_TS.c **** *
 402:.\Generated_Source\PSoC5/isr_TS.c **** * Return:
 403:.\Generated_Source\PSoC5/isr_TS.c **** *   None
 404:.\Generated_Source\PSoC5/isr_TS.c **** *
 405:.\Generated_Source\PSoC5/isr_TS.c **** *******************************************************************************/
 406:.\Generated_Source\PSoC5/isr_TS.c **** void isr_TS_ClearPending(void)
 407:.\Generated_Source\PSoC5/isr_TS.c **** {
 523              		.loc 1 407 0
 524              		.cfi_startproc
 525              		@ args = 0, pretend = 0, frame = 0
 526              		@ frame_needed = 1, uses_anonymous_args = 0
 527              		@ link register save eliminated.
 528 0000 80B4     		push	{r7}
 529              		.cfi_def_cfa_offset 4
 530              		.cfi_offset 7, -4
 531 0002 00AF     		add	r7, sp, #0
 532              		.cfi_def_cfa_register 7
 408:.\Generated_Source\PSoC5/isr_TS.c ****     *isr_TS_INTC_CLR_PD = isr_TS__INTC_MASK;
 533              		.loc 1 408 0
 534 0004 034B     		ldr	r3, .L41
 535 0006 4FF48072 		mov	r2, #256
 536 000a 1A60     		str	r2, [r3]
 409:.\Generated_Source\PSoC5/isr_TS.c **** }
 537              		.loc 1 409 0
 538 000c BD46     		mov	sp, r7
 539              		.cfi_def_cfa_register 13
 540              		@ sp needed
 541 000e 5DF8047B 		ldr	r7, [sp], #4
 542              		.cfi_restore 7
 543              		.cfi_def_cfa_offset 0
 544 0012 7047     		bx	lr
 545              	.L42:
 546              		.align	2
 547              	.L41:
 548 0014 80E200E0 		.word	-536812928
 549              		.cfi_endproc
 550              	.LFE12:
 551              		.size	isr_TS_ClearPending, .-isr_TS_ClearPending
 552              		.text
 553              	.Letext0:
 554              		.file 2 "Generated_Source\\PSoC5/cytypes.h"