ARM GAS  C:\Users\patel\AppData\Local\Temp\ccd1ROQw.s 			page 1


   1              		.syntax unified
   2              		.cpu cortex-m3
   3              		.fpu softvfp
   4              		.eabi_attribute 20, 1
   5              		.eabi_attribute 21, 1
   6              		.eabi_attribute 23, 3
   7              		.eabi_attribute 24, 1
   8              		.eabi_attribute 25, 1
   9              		.eabi_attribute 26, 1
  10              		.eabi_attribute 30, 6
  11              		.eabi_attribute 34, 1
  12              		.eabi_attribute 18, 4
  13              		.thumb
  14              		.file	"QuadDec_M2.c"
  15              		.text
  16              	.Ltext0:
  17              		.cfi_sections	.debug_frame
  18              		.global	QuadDec_M2_initVar
  19              		.bss
  20              		.type	QuadDec_M2_initVar, %object
  21              		.size	QuadDec_M2_initVar, 1
  22              	QuadDec_M2_initVar:
  23 0000 00       		.space	1
  24              		.section	.text.QuadDec_M2_Init,"ax",%progbits
  25              		.align	2
  26              		.global	QuadDec_M2_Init
  27              		.thumb
  28              		.thumb_func
  29              		.type	QuadDec_M2_Init, %function
  30              	QuadDec_M2_Init:
  31              	.LFB0:
  32              		.file 1 ".\\Generated_Source\\PSoC5\\QuadDec_M2.c"
   1:.\Generated_Source\PSoC5/QuadDec_M2.c **** /*******************************************************************************
   2:.\Generated_Source\PSoC5/QuadDec_M2.c **** * File Name: QuadDec_M2.c  
   3:.\Generated_Source\PSoC5/QuadDec_M2.c **** * Version 3.0
   4:.\Generated_Source\PSoC5/QuadDec_M2.c **** *
   5:.\Generated_Source\PSoC5/QuadDec_M2.c **** * Description:
   6:.\Generated_Source\PSoC5/QuadDec_M2.c **** *  This file provides the source code to the API for the Quadrature Decoder
   7:.\Generated_Source\PSoC5/QuadDec_M2.c **** *  component.
   8:.\Generated_Source\PSoC5/QuadDec_M2.c **** *
   9:.\Generated_Source\PSoC5/QuadDec_M2.c **** * Note:
  10:.\Generated_Source\PSoC5/QuadDec_M2.c **** *  None.
  11:.\Generated_Source\PSoC5/QuadDec_M2.c **** *   
  12:.\Generated_Source\PSoC5/QuadDec_M2.c **** ********************************************************************************
  13:.\Generated_Source\PSoC5/QuadDec_M2.c **** * Copyright 2008-2014, Cypress Semiconductor Corporation.  All rights reserved.
  14:.\Generated_Source\PSoC5/QuadDec_M2.c **** * You may use this file only in accordance with the license, terms, conditions, 
  15:.\Generated_Source\PSoC5/QuadDec_M2.c **** * disclaimers, and limitations in the end user license agreement accompanying 
  16:.\Generated_Source\PSoC5/QuadDec_M2.c **** * the software package with which this file was provided.
  17:.\Generated_Source\PSoC5/QuadDec_M2.c **** *******************************************************************************/
  18:.\Generated_Source\PSoC5/QuadDec_M2.c **** 
  19:.\Generated_Source\PSoC5/QuadDec_M2.c **** #include "QuadDec_M2.h"
  20:.\Generated_Source\PSoC5/QuadDec_M2.c **** 
  21:.\Generated_Source\PSoC5/QuadDec_M2.c **** #if (QuadDec_M2_COUNTER_SIZE == QuadDec_M2_COUNTER_SIZE_32_BIT)
  22:.\Generated_Source\PSoC5/QuadDec_M2.c ****     #include "QuadDec_M2_PVT.h"
  23:.\Generated_Source\PSoC5/QuadDec_M2.c **** #endif /* QuadDec_M2_COUNTER_SIZE == QuadDec_M2_COUNTER_SIZE_32_BIT */
  24:.\Generated_Source\PSoC5/QuadDec_M2.c **** 
  25:.\Generated_Source\PSoC5/QuadDec_M2.c **** uint8 QuadDec_M2_initVar = 0u;
ARM GAS  C:\Users\patel\AppData\Local\Temp\ccd1ROQw.s 			page 2


  26:.\Generated_Source\PSoC5/QuadDec_M2.c **** 
  27:.\Generated_Source\PSoC5/QuadDec_M2.c **** 
  28:.\Generated_Source\PSoC5/QuadDec_M2.c **** /*******************************************************************************
  29:.\Generated_Source\PSoC5/QuadDec_M2.c **** * Function Name: QuadDec_M2_Init
  30:.\Generated_Source\PSoC5/QuadDec_M2.c **** ********************************************************************************
  31:.\Generated_Source\PSoC5/QuadDec_M2.c **** *
  32:.\Generated_Source\PSoC5/QuadDec_M2.c **** * Summary:
  33:.\Generated_Source\PSoC5/QuadDec_M2.c **** *  Inits/Restores default QuadDec configuration provided with customizer.
  34:.\Generated_Source\PSoC5/QuadDec_M2.c **** *
  35:.\Generated_Source\PSoC5/QuadDec_M2.c **** * Parameters:
  36:.\Generated_Source\PSoC5/QuadDec_M2.c **** *  None.
  37:.\Generated_Source\PSoC5/QuadDec_M2.c **** *
  38:.\Generated_Source\PSoC5/QuadDec_M2.c **** * Return:
  39:.\Generated_Source\PSoC5/QuadDec_M2.c **** *  None.
  40:.\Generated_Source\PSoC5/QuadDec_M2.c **** *
  41:.\Generated_Source\PSoC5/QuadDec_M2.c **** *******************************************************************************/
  42:.\Generated_Source\PSoC5/QuadDec_M2.c **** void QuadDec_M2_Init(void) 
  43:.\Generated_Source\PSoC5/QuadDec_M2.c **** {
  33              		.loc 1 43 0
  34              		.cfi_startproc
  35              		@ args = 0, pretend = 0, frame = 0
  36              		@ frame_needed = 1, uses_anonymous_args = 0
  37 0000 80B5     		push	{r7, lr}
  38              		.cfi_def_cfa_offset 8
  39              		.cfi_offset 7, -8
  40              		.cfi_offset 14, -4
  41 0002 00AF     		add	r7, sp, #0
  42              		.cfi_def_cfa_register 7
  44:.\Generated_Source\PSoC5/QuadDec_M2.c ****     #if (QuadDec_M2_COUNTER_SIZE == QuadDec_M2_COUNTER_SIZE_32_BIT)
  45:.\Generated_Source\PSoC5/QuadDec_M2.c ****         /* Disable Interrupt. */
  46:.\Generated_Source\PSoC5/QuadDec_M2.c ****         CyIntDisable(QuadDec_M2_ISR_NUMBER);
  43              		.loc 1 46 0
  44 0004 054B     		ldr	r3, .L2
  45 0006 0422     		movs	r2, #4
  46 0008 1A60     		str	r2, [r3]
  47:.\Generated_Source\PSoC5/QuadDec_M2.c ****         /* Set the ISR to point to the QuadDec_M2_isr Interrupt. */
  48:.\Generated_Source\PSoC5/QuadDec_M2.c ****         (void) CyIntSetVector(QuadDec_M2_ISR_NUMBER, & QuadDec_M2_ISR);
  47              		.loc 1 48 0
  48 000a 0220     		movs	r0, #2
  49 000c 0449     		ldr	r1, .L2+4
  50 000e FFF7FEFF 		bl	CyIntSetVector
  49:.\Generated_Source\PSoC5/QuadDec_M2.c ****         /* Set the priority. */
  50:.\Generated_Source\PSoC5/QuadDec_M2.c ****         CyIntSetPriority(QuadDec_M2_ISR_NUMBER, QuadDec_M2_ISR_PRIORITY);
  51              		.loc 1 50 0
  52 0012 0220     		movs	r0, #2
  53 0014 0721     		movs	r1, #7
  54 0016 FFF7FEFF 		bl	CyIntSetPriority
  51:.\Generated_Source\PSoC5/QuadDec_M2.c ****     #endif /* QuadDec_M2_COUNTER_SIZE == QuadDec_M2_COUNTER_SIZE_32_BIT */
  52:.\Generated_Source\PSoC5/QuadDec_M2.c **** }
  55              		.loc 1 52 0
  56 001a 80BD     		pop	{r7, pc}
  57              	.L3:
  58              		.align	2
  59              	.L2:
  60 001c 80E100E0 		.word	-536813184
  61 0020 00000000 		.word	QuadDec_M2_ISR
  62              		.cfi_endproc
ARM GAS  C:\Users\patel\AppData\Local\Temp\ccd1ROQw.s 			page 3


  63              	.LFE0:
  64              		.size	QuadDec_M2_Init, .-QuadDec_M2_Init
  65              		.section	.text.QuadDec_M2_Enable,"ax",%progbits
  66              		.align	2
  67              		.global	QuadDec_M2_Enable
  68              		.thumb
  69              		.thumb_func
  70              		.type	QuadDec_M2_Enable, %function
  71              	QuadDec_M2_Enable:
  72              	.LFB1:
  53:.\Generated_Source\PSoC5/QuadDec_M2.c **** 
  54:.\Generated_Source\PSoC5/QuadDec_M2.c **** 
  55:.\Generated_Source\PSoC5/QuadDec_M2.c **** /*******************************************************************************
  56:.\Generated_Source\PSoC5/QuadDec_M2.c **** * Function Name: QuadDec_M2_Enable
  57:.\Generated_Source\PSoC5/QuadDec_M2.c **** ********************************************************************************
  58:.\Generated_Source\PSoC5/QuadDec_M2.c **** *
  59:.\Generated_Source\PSoC5/QuadDec_M2.c **** * Summary:
  60:.\Generated_Source\PSoC5/QuadDec_M2.c **** *  This function enable interrupts from Component and also enable Component's
  61:.\Generated_Source\PSoC5/QuadDec_M2.c **** *  ISR in case of 32-bit counter.
  62:.\Generated_Source\PSoC5/QuadDec_M2.c **** *
  63:.\Generated_Source\PSoC5/QuadDec_M2.c **** * Parameters:
  64:.\Generated_Source\PSoC5/QuadDec_M2.c **** *  None.
  65:.\Generated_Source\PSoC5/QuadDec_M2.c **** *
  66:.\Generated_Source\PSoC5/QuadDec_M2.c **** * Return:
  67:.\Generated_Source\PSoC5/QuadDec_M2.c **** *  None.
  68:.\Generated_Source\PSoC5/QuadDec_M2.c **** *
  69:.\Generated_Source\PSoC5/QuadDec_M2.c **** *******************************************************************************/
  70:.\Generated_Source\PSoC5/QuadDec_M2.c **** void QuadDec_M2_Enable(void) 
  71:.\Generated_Source\PSoC5/QuadDec_M2.c **** {
  73              		.loc 1 71 0
  74              		.cfi_startproc
  75              		@ args = 0, pretend = 0, frame = 8
  76              		@ frame_needed = 1, uses_anonymous_args = 0
  77 0000 80B5     		push	{r7, lr}
  78              		.cfi_def_cfa_offset 8
  79              		.cfi_offset 7, -8
  80              		.cfi_offset 14, -4
  81 0002 82B0     		sub	sp, sp, #8
  82              		.cfi_def_cfa_offset 16
  83 0004 00AF     		add	r7, sp, #0
  84              		.cfi_def_cfa_register 7
  72:.\Generated_Source\PSoC5/QuadDec_M2.c ****     uint8 enableInterrupts;
  73:.\Generated_Source\PSoC5/QuadDec_M2.c **** 
  74:.\Generated_Source\PSoC5/QuadDec_M2.c ****     QuadDec_M2_SetInterruptMask(QuadDec_M2_INIT_INT_MASK);
  85              		.loc 1 74 0
  86 0006 0F20     		movs	r0, #15
  87 0008 FFF7FEFF 		bl	QuadDec_M2_SetInterruptMask
  75:.\Generated_Source\PSoC5/QuadDec_M2.c **** 
  76:.\Generated_Source\PSoC5/QuadDec_M2.c ****     /* Clear pending interrupts. */
  77:.\Generated_Source\PSoC5/QuadDec_M2.c ****     (void) QuadDec_M2_GetEvents();
  88              		.loc 1 77 0
  89 000c FFF7FEFF 		bl	QuadDec_M2_GetEvents
  78:.\Generated_Source\PSoC5/QuadDec_M2.c ****     
  79:.\Generated_Source\PSoC5/QuadDec_M2.c ****     enableInterrupts = CyEnterCriticalSection();
  90              		.loc 1 79 0
  91 0010 FFF7FEFF 		bl	CyEnterCriticalSection
  92 0014 0346     		mov	r3, r0
ARM GAS  C:\Users\patel\AppData\Local\Temp\ccd1ROQw.s 			page 4


  93 0016 FB71     		strb	r3, [r7, #7]
  80:.\Generated_Source\PSoC5/QuadDec_M2.c **** 
  81:.\Generated_Source\PSoC5/QuadDec_M2.c ****     /* Enable interrupts from Statusi register */
  82:.\Generated_Source\PSoC5/QuadDec_M2.c ****     QuadDec_M2_SR_AUX_CONTROL |= QuadDec_M2_INTERRUPTS_ENABLE;
  94              		.loc 1 82 0
  95 0018 084A     		ldr	r2, .L5
  96 001a 084B     		ldr	r3, .L5
  97 001c 1B78     		ldrb	r3, [r3]
  98 001e DBB2     		uxtb	r3, r3
  99 0020 43F01003 		orr	r3, r3, #16
 100 0024 DBB2     		uxtb	r3, r3
 101 0026 1370     		strb	r3, [r2]
  83:.\Generated_Source\PSoC5/QuadDec_M2.c **** 
  84:.\Generated_Source\PSoC5/QuadDec_M2.c ****     CyExitCriticalSection(enableInterrupts);        
 102              		.loc 1 84 0
 103 0028 FB79     		ldrb	r3, [r7, #7]	@ zero_extendqisi2
 104 002a 1846     		mov	r0, r3
 105 002c FFF7FEFF 		bl	CyExitCriticalSection
  85:.\Generated_Source\PSoC5/QuadDec_M2.c **** 
  86:.\Generated_Source\PSoC5/QuadDec_M2.c ****     #if (QuadDec_M2_COUNTER_SIZE == QuadDec_M2_COUNTER_SIZE_32_BIT)
  87:.\Generated_Source\PSoC5/QuadDec_M2.c ****         /* Enable Component interrupts */
  88:.\Generated_Source\PSoC5/QuadDec_M2.c ****         CyIntEnable(QuadDec_M2_ISR_NUMBER);
 106              		.loc 1 88 0
 107 0030 034B     		ldr	r3, .L5+4
 108 0032 0422     		movs	r2, #4
 109 0034 1A60     		str	r2, [r3]
  89:.\Generated_Source\PSoC5/QuadDec_M2.c ****     #endif /* QuadDec_M2_COUNTER_SIZE == QuadDec_M2_COUNTER_SIZE_32_BIT */
  90:.\Generated_Source\PSoC5/QuadDec_M2.c **** }
 110              		.loc 1 90 0
 111 0036 0837     		adds	r7, r7, #8
 112              		.cfi_def_cfa_offset 8
 113 0038 BD46     		mov	sp, r7
 114              		.cfi_def_cfa_register 13
 115              		@ sp needed
 116 003a 80BD     		pop	{r7, pc}
 117              	.L6:
 118              		.align	2
 119              	.L5:
 120 003c 97650040 		.word	1073767831
 121 0040 00E100E0 		.word	-536813312
 122              		.cfi_endproc
 123              	.LFE1:
 124              		.size	QuadDec_M2_Enable, .-QuadDec_M2_Enable
 125              		.section	.text.QuadDec_M2_Start,"ax",%progbits
 126              		.align	2
 127              		.global	QuadDec_M2_Start
 128              		.thumb
 129              		.thumb_func
 130              		.type	QuadDec_M2_Start, %function
 131              	QuadDec_M2_Start:
 132              	.LFB2:
  91:.\Generated_Source\PSoC5/QuadDec_M2.c **** 
  92:.\Generated_Source\PSoC5/QuadDec_M2.c **** 
  93:.\Generated_Source\PSoC5/QuadDec_M2.c **** /*******************************************************************************
  94:.\Generated_Source\PSoC5/QuadDec_M2.c **** * Function Name: QuadDec_M2_Start
  95:.\Generated_Source\PSoC5/QuadDec_M2.c **** ********************************************************************************
  96:.\Generated_Source\PSoC5/QuadDec_M2.c **** *
ARM GAS  C:\Users\patel\AppData\Local\Temp\ccd1ROQw.s 			page 5


  97:.\Generated_Source\PSoC5/QuadDec_M2.c **** * Summary:
  98:.\Generated_Source\PSoC5/QuadDec_M2.c **** *  Initializes UDBs and other relevant hardware.
  99:.\Generated_Source\PSoC5/QuadDec_M2.c **** *  Resets counter, enables or disables all relevant interrupts.
 100:.\Generated_Source\PSoC5/QuadDec_M2.c **** *  Starts monitoring the inputs and counting.
 101:.\Generated_Source\PSoC5/QuadDec_M2.c **** *
 102:.\Generated_Source\PSoC5/QuadDec_M2.c **** * Parameters:
 103:.\Generated_Source\PSoC5/QuadDec_M2.c **** *  None.
 104:.\Generated_Source\PSoC5/QuadDec_M2.c **** *
 105:.\Generated_Source\PSoC5/QuadDec_M2.c **** * Return:
 106:.\Generated_Source\PSoC5/QuadDec_M2.c **** *  None.
 107:.\Generated_Source\PSoC5/QuadDec_M2.c **** *
 108:.\Generated_Source\PSoC5/QuadDec_M2.c **** * Global variables:
 109:.\Generated_Source\PSoC5/QuadDec_M2.c **** *  QuadDec_M2_initVar - used to check initial configuration, modified on
 110:.\Generated_Source\PSoC5/QuadDec_M2.c **** *  first function call.
 111:.\Generated_Source\PSoC5/QuadDec_M2.c **** *
 112:.\Generated_Source\PSoC5/QuadDec_M2.c **** * Reentrant:
 113:.\Generated_Source\PSoC5/QuadDec_M2.c **** *  No.
 114:.\Generated_Source\PSoC5/QuadDec_M2.c **** *
 115:.\Generated_Source\PSoC5/QuadDec_M2.c **** *******************************************************************************/
 116:.\Generated_Source\PSoC5/QuadDec_M2.c **** void QuadDec_M2_Start(void) 
 117:.\Generated_Source\PSoC5/QuadDec_M2.c **** {
 133              		.loc 1 117 0
 134              		.cfi_startproc
 135              		@ args = 0, pretend = 0, frame = 0
 136              		@ frame_needed = 1, uses_anonymous_args = 0
 137 0000 80B5     		push	{r7, lr}
 138              		.cfi_def_cfa_offset 8
 139              		.cfi_offset 7, -8
 140              		.cfi_offset 14, -4
 141 0002 00AF     		add	r7, sp, #0
 142              		.cfi_def_cfa_register 7
 118:.\Generated_Source\PSoC5/QuadDec_M2.c ****     #if (QuadDec_M2_COUNTER_SIZE == QuadDec_M2_COUNTER_SIZE_8_BIT)
 119:.\Generated_Source\PSoC5/QuadDec_M2.c ****         QuadDec_M2_Cnt8_Start();
 120:.\Generated_Source\PSoC5/QuadDec_M2.c ****         QuadDec_M2_Cnt8_WriteCounter(QuadDec_M2_COUNTER_INIT_VALUE);
 121:.\Generated_Source\PSoC5/QuadDec_M2.c ****     #else
 122:.\Generated_Source\PSoC5/QuadDec_M2.c ****         /* (QuadDec_M2_COUNTER_SIZE == QuadDec_M2_COUNTER_SIZE_16_BIT) || 
 123:.\Generated_Source\PSoC5/QuadDec_M2.c ****         *  (QuadDec_M2_COUNTER_SIZE == QuadDec_M2_COUNTER_SIZE_32_BIT) 
 124:.\Generated_Source\PSoC5/QuadDec_M2.c ****         */
 125:.\Generated_Source\PSoC5/QuadDec_M2.c ****         QuadDec_M2_Cnt16_Start();
 143              		.loc 1 125 0
 144 0004 FFF7FEFF 		bl	QuadDec_M2_Cnt16_Start
 126:.\Generated_Source\PSoC5/QuadDec_M2.c ****         QuadDec_M2_Cnt16_WriteCounter(QuadDec_M2_COUNTER_INIT_VALUE);
 145              		.loc 1 126 0
 146 0008 4FF40040 		mov	r0, #32768
 147 000c FFF7FEFF 		bl	QuadDec_M2_Cnt16_WriteCounter
 127:.\Generated_Source\PSoC5/QuadDec_M2.c ****     #endif /* QuadDec_M2_COUNTER_SIZE == QuadDec_M2_COUNTER_SIZE_8_BIT */
 128:.\Generated_Source\PSoC5/QuadDec_M2.c ****     
 129:.\Generated_Source\PSoC5/QuadDec_M2.c ****     #if (QuadDec_M2_COUNTER_SIZE == QuadDec_M2_COUNTER_SIZE_32_BIT)        
 130:.\Generated_Source\PSoC5/QuadDec_M2.c ****        QuadDec_M2_count32SoftPart = 0;
 148              		.loc 1 130 0
 149 0010 074B     		ldr	r3, .L9
 150 0012 0022     		movs	r2, #0
 151 0014 1A60     		str	r2, [r3]
 131:.\Generated_Source\PSoC5/QuadDec_M2.c ****     #endif /* QuadDec_M2_COUNTER_SIZE == QuadDec_M2_COUNTER_SIZE_32_BIT */
 132:.\Generated_Source\PSoC5/QuadDec_M2.c **** 
 133:.\Generated_Source\PSoC5/QuadDec_M2.c ****     if (QuadDec_M2_initVar == 0u)
 152              		.loc 1 133 0
ARM GAS  C:\Users\patel\AppData\Local\Temp\ccd1ROQw.s 			page 6


 153 0016 074B     		ldr	r3, .L9+4
 154 0018 1B78     		ldrb	r3, [r3]	@ zero_extendqisi2
 155 001a 002B     		cmp	r3, #0
 156 001c 04D1     		bne	.L8
 134:.\Generated_Source\PSoC5/QuadDec_M2.c ****     {
 135:.\Generated_Source\PSoC5/QuadDec_M2.c ****         QuadDec_M2_Init();
 157              		.loc 1 135 0
 158 001e FFF7FEFF 		bl	QuadDec_M2_Init
 136:.\Generated_Source\PSoC5/QuadDec_M2.c ****         QuadDec_M2_initVar = 1u;
 159              		.loc 1 136 0
 160 0022 044B     		ldr	r3, .L9+4
 161 0024 0122     		movs	r2, #1
 162 0026 1A70     		strb	r2, [r3]
 163              	.L8:
 137:.\Generated_Source\PSoC5/QuadDec_M2.c ****     }
 138:.\Generated_Source\PSoC5/QuadDec_M2.c **** 
 139:.\Generated_Source\PSoC5/QuadDec_M2.c ****     QuadDec_M2_Enable();
 164              		.loc 1 139 0
 165 0028 FFF7FEFF 		bl	QuadDec_M2_Enable
 140:.\Generated_Source\PSoC5/QuadDec_M2.c **** }
 166              		.loc 1 140 0
 167 002c 80BD     		pop	{r7, pc}
 168              	.L10:
 169 002e 00BF     		.align	2
 170              	.L9:
 171 0030 00000000 		.word	QuadDec_M2_count32SoftPart
 172 0034 00000000 		.word	QuadDec_M2_initVar
 173              		.cfi_endproc
 174              	.LFE2:
 175              		.size	QuadDec_M2_Start, .-QuadDec_M2_Start
 176              		.section	.text.QuadDec_M2_Stop,"ax",%progbits
 177              		.align	2
 178              		.global	QuadDec_M2_Stop
 179              		.thumb
 180              		.thumb_func
 181              		.type	QuadDec_M2_Stop, %function
 182              	QuadDec_M2_Stop:
 183              	.LFB3:
 141:.\Generated_Source\PSoC5/QuadDec_M2.c **** 
 142:.\Generated_Source\PSoC5/QuadDec_M2.c **** 
 143:.\Generated_Source\PSoC5/QuadDec_M2.c **** /*******************************************************************************
 144:.\Generated_Source\PSoC5/QuadDec_M2.c **** * Function Name: QuadDec_M2_Stop
 145:.\Generated_Source\PSoC5/QuadDec_M2.c **** ********************************************************************************
 146:.\Generated_Source\PSoC5/QuadDec_M2.c **** *
 147:.\Generated_Source\PSoC5/QuadDec_M2.c **** * Summary:
 148:.\Generated_Source\PSoC5/QuadDec_M2.c **** *  Turns off UDBs and other relevant hardware.
 149:.\Generated_Source\PSoC5/QuadDec_M2.c **** *
 150:.\Generated_Source\PSoC5/QuadDec_M2.c **** * Parameters:
 151:.\Generated_Source\PSoC5/QuadDec_M2.c **** *  None.
 152:.\Generated_Source\PSoC5/QuadDec_M2.c **** *
 153:.\Generated_Source\PSoC5/QuadDec_M2.c **** * Return:
 154:.\Generated_Source\PSoC5/QuadDec_M2.c **** *  None.
 155:.\Generated_Source\PSoC5/QuadDec_M2.c **** *
 156:.\Generated_Source\PSoC5/QuadDec_M2.c **** *******************************************************************************/
 157:.\Generated_Source\PSoC5/QuadDec_M2.c **** void QuadDec_M2_Stop(void) 
 158:.\Generated_Source\PSoC5/QuadDec_M2.c **** {
 184              		.loc 1 158 0
ARM GAS  C:\Users\patel\AppData\Local\Temp\ccd1ROQw.s 			page 7


 185              		.cfi_startproc
 186              		@ args = 0, pretend = 0, frame = 8
 187              		@ frame_needed = 1, uses_anonymous_args = 0
 188 0000 80B5     		push	{r7, lr}
 189              		.cfi_def_cfa_offset 8
 190              		.cfi_offset 7, -8
 191              		.cfi_offset 14, -4
 192 0002 82B0     		sub	sp, sp, #8
 193              		.cfi_def_cfa_offset 16
 194 0004 00AF     		add	r7, sp, #0
 195              		.cfi_def_cfa_register 7
 159:.\Generated_Source\PSoC5/QuadDec_M2.c ****     uint8 enableInterrupts;
 160:.\Generated_Source\PSoC5/QuadDec_M2.c **** 
 161:.\Generated_Source\PSoC5/QuadDec_M2.c ****     #if (QuadDec_M2_COUNTER_SIZE == QuadDec_M2_COUNTER_SIZE_8_BIT)
 162:.\Generated_Source\PSoC5/QuadDec_M2.c ****         QuadDec_M2_Cnt8_Stop();
 163:.\Generated_Source\PSoC5/QuadDec_M2.c ****     #else 
 164:.\Generated_Source\PSoC5/QuadDec_M2.c ****         /* (QuadDec_M2_COUNTER_SIZE == QuadDec_M2_COUNTER_SIZE_16_BIT) ||
 165:.\Generated_Source\PSoC5/QuadDec_M2.c ****         *  (QuadDec_M2_COUNTER_SIZE == QuadDec_M2_COUNTER_SIZE_32_BIT)
 166:.\Generated_Source\PSoC5/QuadDec_M2.c ****         */
 167:.\Generated_Source\PSoC5/QuadDec_M2.c ****         QuadDec_M2_Cnt16_Stop();    /* counter disable */
 196              		.loc 1 167 0
 197 0006 FFF7FEFF 		bl	QuadDec_M2_Cnt16_Stop
 168:.\Generated_Source\PSoC5/QuadDec_M2.c ****     #endif /* (QuadDec_M2_COUNTER_SIZE == QuadDec_M2_COUNTER_SIZE_8_BIT) */
 169:.\Generated_Source\PSoC5/QuadDec_M2.c ****  
 170:.\Generated_Source\PSoC5/QuadDec_M2.c ****     enableInterrupts = CyEnterCriticalSection();
 198              		.loc 1 170 0
 199 000a FFF7FEFF 		bl	CyEnterCriticalSection
 200 000e 0346     		mov	r3, r0
 201 0010 FB71     		strb	r3, [r7, #7]
 171:.\Generated_Source\PSoC5/QuadDec_M2.c **** 
 172:.\Generated_Source\PSoC5/QuadDec_M2.c ****     /* Disable interrupts interrupts from Statusi register */
 173:.\Generated_Source\PSoC5/QuadDec_M2.c ****     QuadDec_M2_SR_AUX_CONTROL &= (uint8) (~QuadDec_M2_INTERRUPTS_ENABLE);
 202              		.loc 1 173 0
 203 0012 094A     		ldr	r2, .L12
 204 0014 084B     		ldr	r3, .L12
 205 0016 1B78     		ldrb	r3, [r3]
 206 0018 DBB2     		uxtb	r3, r3
 207 001a 23F01003 		bic	r3, r3, #16
 208 001e DBB2     		uxtb	r3, r3
 209 0020 1370     		strb	r3, [r2]
 174:.\Generated_Source\PSoC5/QuadDec_M2.c **** 
 175:.\Generated_Source\PSoC5/QuadDec_M2.c ****     CyExitCriticalSection(enableInterrupts);
 210              		.loc 1 175 0
 211 0022 FB79     		ldrb	r3, [r7, #7]	@ zero_extendqisi2
 212 0024 1846     		mov	r0, r3
 213 0026 FFF7FEFF 		bl	CyExitCriticalSection
 176:.\Generated_Source\PSoC5/QuadDec_M2.c **** 
 177:.\Generated_Source\PSoC5/QuadDec_M2.c ****     #if (QuadDec_M2_COUNTER_SIZE == QuadDec_M2_COUNTER_SIZE_32_BIT)
 178:.\Generated_Source\PSoC5/QuadDec_M2.c ****         CyIntDisable(QuadDec_M2_ISR_NUMBER);    /* interrupt disable */
 214              		.loc 1 178 0
 215 002a 044B     		ldr	r3, .L12+4
 216 002c 0422     		movs	r2, #4
 217 002e 1A60     		str	r2, [r3]
 179:.\Generated_Source\PSoC5/QuadDec_M2.c ****     #endif /* QuadDec_M2_COUNTER_SIZE == QuadDec_M2_COUNTER_SIZE_32_BIT */
 180:.\Generated_Source\PSoC5/QuadDec_M2.c **** }
 218              		.loc 1 180 0
 219 0030 0837     		adds	r7, r7, #8
ARM GAS  C:\Users\patel\AppData\Local\Temp\ccd1ROQw.s 			page 8


 220              		.cfi_def_cfa_offset 8
 221 0032 BD46     		mov	sp, r7
 222              		.cfi_def_cfa_register 13
 223              		@ sp needed
 224 0034 80BD     		pop	{r7, pc}
 225              	.L13:
 226 0036 00BF     		.align	2
 227              	.L12:
 228 0038 97650040 		.word	1073767831
 229 003c 80E100E0 		.word	-536813184
 230              		.cfi_endproc
 231              	.LFE3:
 232              		.size	QuadDec_M2_Stop, .-QuadDec_M2_Stop
 233              		.section	.text.QuadDec_M2_GetCounter,"ax",%progbits
 234              		.align	2
 235              		.global	QuadDec_M2_GetCounter
 236              		.thumb
 237              		.thumb_func
 238              		.type	QuadDec_M2_GetCounter, %function
 239              	QuadDec_M2_GetCounter:
 240              	.LFB4:
 181:.\Generated_Source\PSoC5/QuadDec_M2.c **** 
 182:.\Generated_Source\PSoC5/QuadDec_M2.c **** 
 183:.\Generated_Source\PSoC5/QuadDec_M2.c **** /*******************************************************************************
 184:.\Generated_Source\PSoC5/QuadDec_M2.c **** * Function Name: QuadDec_M2_GetCounter
 185:.\Generated_Source\PSoC5/QuadDec_M2.c **** ********************************************************************************
 186:.\Generated_Source\PSoC5/QuadDec_M2.c **** *
 187:.\Generated_Source\PSoC5/QuadDec_M2.c **** * Summary:
 188:.\Generated_Source\PSoC5/QuadDec_M2.c **** *  Reports the current value of the counter.
 189:.\Generated_Source\PSoC5/QuadDec_M2.c **** *
 190:.\Generated_Source\PSoC5/QuadDec_M2.c **** * Parameters:
 191:.\Generated_Source\PSoC5/QuadDec_M2.c **** *  None.
 192:.\Generated_Source\PSoC5/QuadDec_M2.c **** *
 193:.\Generated_Source\PSoC5/QuadDec_M2.c **** * Return:
 194:.\Generated_Source\PSoC5/QuadDec_M2.c **** *  The counter value. Return type is signed and per the counter size setting.
 195:.\Generated_Source\PSoC5/QuadDec_M2.c **** *  A positive value indicates clockwise movement (B before A).
 196:.\Generated_Source\PSoC5/QuadDec_M2.c **** *
 197:.\Generated_Source\PSoC5/QuadDec_M2.c **** * Global variables:
 198:.\Generated_Source\PSoC5/QuadDec_M2.c **** *  QuadDec_M2_count32SoftPart - used to get hi 16 bit for current value
 199:.\Generated_Source\PSoC5/QuadDec_M2.c **** *  of the 32-bit counter, when Counter size equal 32-bit.
 200:.\Generated_Source\PSoC5/QuadDec_M2.c **** *
 201:.\Generated_Source\PSoC5/QuadDec_M2.c **** *******************************************************************************/
 202:.\Generated_Source\PSoC5/QuadDec_M2.c **** int32 QuadDec_M2_GetCounter(void) 
 203:.\Generated_Source\PSoC5/QuadDec_M2.c **** {
 241              		.loc 1 203 0
 242              		.cfi_startproc
 243              		@ args = 0, pretend = 0, frame = 8
 244              		@ frame_needed = 1, uses_anonymous_args = 0
 245 0000 80B5     		push	{r7, lr}
 246              		.cfi_def_cfa_offset 8
 247              		.cfi_offset 7, -8
 248              		.cfi_offset 14, -4
 249 0002 82B0     		sub	sp, sp, #8
 250              		.cfi_def_cfa_offset 16
 251 0004 00AF     		add	r7, sp, #0
 252              		.cfi_def_cfa_register 7
 204:.\Generated_Source\PSoC5/QuadDec_M2.c ****     int32 count;
ARM GAS  C:\Users\patel\AppData\Local\Temp\ccd1ROQw.s 			page 9


 205:.\Generated_Source\PSoC5/QuadDec_M2.c ****     uint16 tmpCnt;
 206:.\Generated_Source\PSoC5/QuadDec_M2.c **** 
 207:.\Generated_Source\PSoC5/QuadDec_M2.c ****     #if (QuadDec_M2_COUNTER_SIZE == QuadDec_M2_COUNTER_SIZE_32_BIT)
 208:.\Generated_Source\PSoC5/QuadDec_M2.c ****         int16 hwCount;
 209:.\Generated_Source\PSoC5/QuadDec_M2.c **** 
 210:.\Generated_Source\PSoC5/QuadDec_M2.c ****         CyIntDisable(QuadDec_M2_ISR_NUMBER);
 253              		.loc 1 210 0
 254 0006 0D4B     		ldr	r3, .L16
 255 0008 0422     		movs	r2, #4
 256 000a 1A60     		str	r2, [r3]
 211:.\Generated_Source\PSoC5/QuadDec_M2.c **** 
 212:.\Generated_Source\PSoC5/QuadDec_M2.c ****         tmpCnt = QuadDec_M2_Cnt16_ReadCounter();
 257              		.loc 1 212 0
 258 000c FFF7FEFF 		bl	QuadDec_M2_Cnt16_ReadCounter
 259 0010 0346     		mov	r3, r0
 260 0012 FB80     		strh	r3, [r7, #6]	@ movhi
 213:.\Generated_Source\PSoC5/QuadDec_M2.c ****         hwCount = (int16) ((int32) tmpCnt - (int32) QuadDec_M2_COUNTER_INIT_VALUE);
 261              		.loc 1 213 0
 262 0014 FB88     		ldrh	r3, [r7, #6]	@ movhi
 263 0016 A3F50043 		sub	r3, r3, #32768
 264 001a 9BB2     		uxth	r3, r3
 265 001c BB80     		strh	r3, [r7, #4]	@ movhi
 214:.\Generated_Source\PSoC5/QuadDec_M2.c ****         count = QuadDec_M2_count32SoftPart + hwCount;
 266              		.loc 1 214 0
 267 001e B7F90420 		ldrsh	r2, [r7, #4]
 268 0022 074B     		ldr	r3, .L16+4
 269 0024 1B68     		ldr	r3, [r3]
 270 0026 1344     		add	r3, r3, r2
 271 0028 3B60     		str	r3, [r7]
 215:.\Generated_Source\PSoC5/QuadDec_M2.c **** 
 216:.\Generated_Source\PSoC5/QuadDec_M2.c ****         CyIntEnable(QuadDec_M2_ISR_NUMBER);
 272              		.loc 1 216 0
 273 002a 064B     		ldr	r3, .L16+8
 274 002c 0422     		movs	r2, #4
 275 002e 1A60     		str	r2, [r3]
 217:.\Generated_Source\PSoC5/QuadDec_M2.c ****     #else 
 218:.\Generated_Source\PSoC5/QuadDec_M2.c ****         /* (QuadDec_M2_COUNTER_SIZE == QuadDec_M2_COUNTER_SIZE_8_BIT) || 
 219:.\Generated_Source\PSoC5/QuadDec_M2.c ****         *  (QuadDec_M2_COUNTER_SIZE == QuadDec_M2_COUNTER_SIZE_16_BIT)
 220:.\Generated_Source\PSoC5/QuadDec_M2.c ****         */
 221:.\Generated_Source\PSoC5/QuadDec_M2.c ****         #if (QuadDec_M2_COUNTER_SIZE == QuadDec_M2_COUNTER_SIZE_8_BIT)
 222:.\Generated_Source\PSoC5/QuadDec_M2.c ****             tmpCnt = QuadDec_M2_Cnt8_ReadCounter();
 223:.\Generated_Source\PSoC5/QuadDec_M2.c ****         #else /* (QuadDec_M2_COUNTER_SIZE == QuadDec_M2_COUNTER_SIZE_16_BIT) */
 224:.\Generated_Source\PSoC5/QuadDec_M2.c ****             tmpCnt = QuadDec_M2_Cnt16_ReadCounter();
 225:.\Generated_Source\PSoC5/QuadDec_M2.c ****         #endif  /* QuadDec_M2_COUNTER_SIZE == QuadDec_M2_COUNTER_SIZE_8_BIT */
 226:.\Generated_Source\PSoC5/QuadDec_M2.c **** 
 227:.\Generated_Source\PSoC5/QuadDec_M2.c ****         count = (int32) ((int32) tmpCnt -
 228:.\Generated_Source\PSoC5/QuadDec_M2.c ****                 (int32) QuadDec_M2_COUNTER_INIT_VALUE);
 229:.\Generated_Source\PSoC5/QuadDec_M2.c **** 
 230:.\Generated_Source\PSoC5/QuadDec_M2.c ****     #endif /* QuadDec_M2_COUNTER_SIZE == QuadDec_M2_COUNTER_SIZE_32_BIT */ 
 231:.\Generated_Source\PSoC5/QuadDec_M2.c **** 
 232:.\Generated_Source\PSoC5/QuadDec_M2.c ****     return (count);
 276              		.loc 1 232 0
 277 0030 3B68     		ldr	r3, [r7]
 233:.\Generated_Source\PSoC5/QuadDec_M2.c **** }
 278              		.loc 1 233 0
 279 0032 1846     		mov	r0, r3
 280 0034 0837     		adds	r7, r7, #8
ARM GAS  C:\Users\patel\AppData\Local\Temp\ccd1ROQw.s 			page 10


 281              		.cfi_def_cfa_offset 8
 282 0036 BD46     		mov	sp, r7
 283              		.cfi_def_cfa_register 13
 284              		@ sp needed
 285 0038 80BD     		pop	{r7, pc}
 286              	.L17:
 287 003a 00BF     		.align	2
 288              	.L16:
 289 003c 80E100E0 		.word	-536813184
 290 0040 00000000 		.word	QuadDec_M2_count32SoftPart
 291 0044 00E100E0 		.word	-536813312
 292              		.cfi_endproc
 293              	.LFE4:
 294              		.size	QuadDec_M2_GetCounter, .-QuadDec_M2_GetCounter
 295              		.section	.text.QuadDec_M2_SetCounter,"ax",%progbits
 296              		.align	2
 297              		.global	QuadDec_M2_SetCounter
 298              		.thumb
 299              		.thumb_func
 300              		.type	QuadDec_M2_SetCounter, %function
 301              	QuadDec_M2_SetCounter:
 302              	.LFB5:
 234:.\Generated_Source\PSoC5/QuadDec_M2.c **** 
 235:.\Generated_Source\PSoC5/QuadDec_M2.c **** 
 236:.\Generated_Source\PSoC5/QuadDec_M2.c **** /*******************************************************************************
 237:.\Generated_Source\PSoC5/QuadDec_M2.c **** * Function Name: QuadDec_M2_SetCounter
 238:.\Generated_Source\PSoC5/QuadDec_M2.c **** ********************************************************************************
 239:.\Generated_Source\PSoC5/QuadDec_M2.c **** *
 240:.\Generated_Source\PSoC5/QuadDec_M2.c **** * Summary:
 241:.\Generated_Source\PSoC5/QuadDec_M2.c **** *  Sets the current value of the counter.
 242:.\Generated_Source\PSoC5/QuadDec_M2.c **** *
 243:.\Generated_Source\PSoC5/QuadDec_M2.c **** * Parameters:
 244:.\Generated_Source\PSoC5/QuadDec_M2.c **** *  value:  The new value. Parameter type is signed and per the counter size
 245:.\Generated_Source\PSoC5/QuadDec_M2.c **** *  setting.
 246:.\Generated_Source\PSoC5/QuadDec_M2.c **** *
 247:.\Generated_Source\PSoC5/QuadDec_M2.c **** * Return:
 248:.\Generated_Source\PSoC5/QuadDec_M2.c **** *  None.
 249:.\Generated_Source\PSoC5/QuadDec_M2.c **** *
 250:.\Generated_Source\PSoC5/QuadDec_M2.c **** * Global variables:
 251:.\Generated_Source\PSoC5/QuadDec_M2.c **** *  QuadDec_M2_count32SoftPart - modified to set hi 16 bit for current
 252:.\Generated_Source\PSoC5/QuadDec_M2.c **** *  value of the 32-bit counter, when Counter size equal 32-bit.
 253:.\Generated_Source\PSoC5/QuadDec_M2.c **** *
 254:.\Generated_Source\PSoC5/QuadDec_M2.c **** * Reentrant:
 255:.\Generated_Source\PSoC5/QuadDec_M2.c **** *  No.
 256:.\Generated_Source\PSoC5/QuadDec_M2.c **** *
 257:.\Generated_Source\PSoC5/QuadDec_M2.c **** *******************************************************************************/
 258:.\Generated_Source\PSoC5/QuadDec_M2.c **** void QuadDec_M2_SetCounter(int32 value) 
 259:.\Generated_Source\PSoC5/QuadDec_M2.c **** {
 303              		.loc 1 259 0
 304              		.cfi_startproc
 305              		@ args = 0, pretend = 0, frame = 8
 306              		@ frame_needed = 1, uses_anonymous_args = 0
 307 0000 80B5     		push	{r7, lr}
 308              		.cfi_def_cfa_offset 8
 309              		.cfi_offset 7, -8
 310              		.cfi_offset 14, -4
 311 0002 82B0     		sub	sp, sp, #8
ARM GAS  C:\Users\patel\AppData\Local\Temp\ccd1ROQw.s 			page 11


 312              		.cfi_def_cfa_offset 16
 313 0004 00AF     		add	r7, sp, #0
 314              		.cfi_def_cfa_register 7
 315 0006 7860     		str	r0, [r7, #4]
 260:.\Generated_Source\PSoC5/QuadDec_M2.c ****     #if ((QuadDec_M2_COUNTER_SIZE == QuadDec_M2_COUNTER_SIZE_8_BIT) || \
 261:.\Generated_Source\PSoC5/QuadDec_M2.c ****          (QuadDec_M2_COUNTER_SIZE == QuadDec_M2_COUNTER_SIZE_16_BIT))
 262:.\Generated_Source\PSoC5/QuadDec_M2.c ****         uint16 count;
 263:.\Generated_Source\PSoC5/QuadDec_M2.c ****         
 264:.\Generated_Source\PSoC5/QuadDec_M2.c ****         if (value >= 0)
 265:.\Generated_Source\PSoC5/QuadDec_M2.c ****         {
 266:.\Generated_Source\PSoC5/QuadDec_M2.c ****             count = (uint16) value + QuadDec_M2_COUNTER_INIT_VALUE;
 267:.\Generated_Source\PSoC5/QuadDec_M2.c ****         }
 268:.\Generated_Source\PSoC5/QuadDec_M2.c ****         else
 269:.\Generated_Source\PSoC5/QuadDec_M2.c ****         {
 270:.\Generated_Source\PSoC5/QuadDec_M2.c ****             count = QuadDec_M2_COUNTER_INIT_VALUE - (uint16)(-value);
 271:.\Generated_Source\PSoC5/QuadDec_M2.c ****         }
 272:.\Generated_Source\PSoC5/QuadDec_M2.c ****         #if (QuadDec_M2_COUNTER_SIZE == QuadDec_M2_COUNTER_SIZE_8_BIT)
 273:.\Generated_Source\PSoC5/QuadDec_M2.c ****             QuadDec_M2_Cnt8_WriteCounter(count);
 274:.\Generated_Source\PSoC5/QuadDec_M2.c ****         #else /* (QuadDec_M2_COUNTER_SIZE == QuadDec_M2_COUNTER_SIZE_16_BIT) */
 275:.\Generated_Source\PSoC5/QuadDec_M2.c ****             QuadDec_M2_Cnt16_WriteCounter(count);
 276:.\Generated_Source\PSoC5/QuadDec_M2.c ****         #endif  /* QuadDec_M2_COUNTER_SIZE == QuadDec_M2_COUNTER_SIZE_8_BIT */
 277:.\Generated_Source\PSoC5/QuadDec_M2.c ****     #else /* (QuadDec_M2_COUNTER_SIZE == QuadDec_M2_COUNTER_SIZE_32_BIT) */
 278:.\Generated_Source\PSoC5/QuadDec_M2.c ****         CyIntDisable(QuadDec_M2_ISR_NUMBER);
 316              		.loc 1 278 0
 317 0008 074B     		ldr	r3, .L19
 318 000a 0422     		movs	r2, #4
 319 000c 1A60     		str	r2, [r3]
 279:.\Generated_Source\PSoC5/QuadDec_M2.c **** 
 280:.\Generated_Source\PSoC5/QuadDec_M2.c ****         QuadDec_M2_Cnt16_WriteCounter(QuadDec_M2_COUNTER_INIT_VALUE);
 320              		.loc 1 280 0
 321 000e 4FF40040 		mov	r0, #32768
 322 0012 FFF7FEFF 		bl	QuadDec_M2_Cnt16_WriteCounter
 281:.\Generated_Source\PSoC5/QuadDec_M2.c ****         QuadDec_M2_count32SoftPart = value;
 323              		.loc 1 281 0
 324 0016 054A     		ldr	r2, .L19+4
 325 0018 7B68     		ldr	r3, [r7, #4]
 326 001a 1360     		str	r3, [r2]
 282:.\Generated_Source\PSoC5/QuadDec_M2.c **** 
 283:.\Generated_Source\PSoC5/QuadDec_M2.c ****         CyIntEnable(QuadDec_M2_ISR_NUMBER);
 327              		.loc 1 283 0
 328 001c 044B     		ldr	r3, .L19+8
 329 001e 0422     		movs	r2, #4
 330 0020 1A60     		str	r2, [r3]
 284:.\Generated_Source\PSoC5/QuadDec_M2.c ****     #endif  /* (QuadDec_M2_COUNTER_SIZE == QuadDec_M2_COUNTER_SIZE_8_BIT) ||
 285:.\Generated_Source\PSoC5/QuadDec_M2.c ****              * (QuadDec_M2_COUNTER_SIZE == QuadDec_M2_COUNTER_SIZE_16_BIT)
 286:.\Generated_Source\PSoC5/QuadDec_M2.c ****              */
 287:.\Generated_Source\PSoC5/QuadDec_M2.c **** }
 331              		.loc 1 287 0
 332 0022 0837     		adds	r7, r7, #8
 333              		.cfi_def_cfa_offset 8
 334 0024 BD46     		mov	sp, r7
 335              		.cfi_def_cfa_register 13
 336              		@ sp needed
 337 0026 80BD     		pop	{r7, pc}
 338              	.L20:
 339              		.align	2
 340              	.L19:
ARM GAS  C:\Users\patel\AppData\Local\Temp\ccd1ROQw.s 			page 12


 341 0028 80E100E0 		.word	-536813184
 342 002c 00000000 		.word	QuadDec_M2_count32SoftPart
 343 0030 00E100E0 		.word	-536813312
 344              		.cfi_endproc
 345              	.LFE5:
 346              		.size	QuadDec_M2_SetCounter, .-QuadDec_M2_SetCounter
 347              		.section	.text.QuadDec_M2_GetEvents,"ax",%progbits
 348              		.align	2
 349              		.global	QuadDec_M2_GetEvents
 350              		.thumb
 351              		.thumb_func
 352              		.type	QuadDec_M2_GetEvents, %function
 353              	QuadDec_M2_GetEvents:
 354              	.LFB6:
 288:.\Generated_Source\PSoC5/QuadDec_M2.c **** 
 289:.\Generated_Source\PSoC5/QuadDec_M2.c **** 
 290:.\Generated_Source\PSoC5/QuadDec_M2.c **** /*******************************************************************************
 291:.\Generated_Source\PSoC5/QuadDec_M2.c **** * Function Name: QuadDec_M2_GetEvents
 292:.\Generated_Source\PSoC5/QuadDec_M2.c **** ********************************************************************************
 293:.\Generated_Source\PSoC5/QuadDec_M2.c **** * 
 294:.\Generated_Source\PSoC5/QuadDec_M2.c **** * Summary:
 295:.\Generated_Source\PSoC5/QuadDec_M2.c **** *   Reports the current status of events. This function clears the bits of the 
 296:.\Generated_Source\PSoC5/QuadDec_M2.c **** *   status register.
 297:.\Generated_Source\PSoC5/QuadDec_M2.c **** *
 298:.\Generated_Source\PSoC5/QuadDec_M2.c **** * Parameters:
 299:.\Generated_Source\PSoC5/QuadDec_M2.c **** *  None.
 300:.\Generated_Source\PSoC5/QuadDec_M2.c **** *
 301:.\Generated_Source\PSoC5/QuadDec_M2.c **** * Return:
 302:.\Generated_Source\PSoC5/QuadDec_M2.c **** *  The events, as bits in an unsigned 8-bit value:
 303:.\Generated_Source\PSoC5/QuadDec_M2.c **** *    Bit      Description
 304:.\Generated_Source\PSoC5/QuadDec_M2.c **** *     0        Counter overflow.
 305:.\Generated_Source\PSoC5/QuadDec_M2.c **** *     1        Counter underflow.
 306:.\Generated_Source\PSoC5/QuadDec_M2.c **** *     2        Counter reset due to index, if index input is used.
 307:.\Generated_Source\PSoC5/QuadDec_M2.c **** *     3        Invalid A, B inputs state transition.
 308:.\Generated_Source\PSoC5/QuadDec_M2.c **** *
 309:.\Generated_Source\PSoC5/QuadDec_M2.c **** *******************************************************************************/
 310:.\Generated_Source\PSoC5/QuadDec_M2.c **** uint8 QuadDec_M2_GetEvents(void) 
 311:.\Generated_Source\PSoC5/QuadDec_M2.c **** {
 355              		.loc 1 311 0
 356              		.cfi_startproc
 357              		@ args = 0, pretend = 0, frame = 0
 358              		@ frame_needed = 1, uses_anonymous_args = 0
 359              		@ link register save eliminated.
 360 0000 80B4     		push	{r7}
 361              		.cfi_def_cfa_offset 4
 362              		.cfi_offset 7, -4
 363 0002 00AF     		add	r7, sp, #0
 364              		.cfi_def_cfa_register 7
 312:.\Generated_Source\PSoC5/QuadDec_M2.c ****     return (QuadDec_M2_STATUS_REG & QuadDec_M2_INIT_INT_MASK);
 365              		.loc 1 312 0
 366 0004 054B     		ldr	r3, .L23
 367 0006 1B78     		ldrb	r3, [r3]
 368 0008 DBB2     		uxtb	r3, r3
 369 000a 03F00F03 		and	r3, r3, #15
 370 000e DBB2     		uxtb	r3, r3
 313:.\Generated_Source\PSoC5/QuadDec_M2.c **** }
 371              		.loc 1 313 0
ARM GAS  C:\Users\patel\AppData\Local\Temp\ccd1ROQw.s 			page 13


 372 0010 1846     		mov	r0, r3
 373 0012 BD46     		mov	sp, r7
 374              		.cfi_def_cfa_register 13
 375              		@ sp needed
 376 0014 5DF8047B 		ldr	r7, [sp], #4
 377              		.cfi_restore 7
 378              		.cfi_def_cfa_offset 0
 379 0018 7047     		bx	lr
 380              	.L24:
 381 001a 00BF     		.align	2
 382              	.L23:
 383 001c 67650040 		.word	1073767783
 384              		.cfi_endproc
 385              	.LFE6:
 386              		.size	QuadDec_M2_GetEvents, .-QuadDec_M2_GetEvents
 387              		.section	.text.QuadDec_M2_SetInterruptMask,"ax",%progbits
 388              		.align	2
 389              		.global	QuadDec_M2_SetInterruptMask
 390              		.thumb
 391              		.thumb_func
 392              		.type	QuadDec_M2_SetInterruptMask, %function
 393              	QuadDec_M2_SetInterruptMask:
 394              	.LFB7:
 314:.\Generated_Source\PSoC5/QuadDec_M2.c **** 
 315:.\Generated_Source\PSoC5/QuadDec_M2.c **** 
 316:.\Generated_Source\PSoC5/QuadDec_M2.c **** /*******************************************************************************
 317:.\Generated_Source\PSoC5/QuadDec_M2.c **** * Function Name: QuadDec_M2_SetInterruptMask
 318:.\Generated_Source\PSoC5/QuadDec_M2.c **** ********************************************************************************
 319:.\Generated_Source\PSoC5/QuadDec_M2.c **** *
 320:.\Generated_Source\PSoC5/QuadDec_M2.c **** * Summary:
 321:.\Generated_Source\PSoC5/QuadDec_M2.c **** *  Enables / disables interrupts due to the events.
 322:.\Generated_Source\PSoC5/QuadDec_M2.c **** *  For the 32-bit counter, the overflow, underflow and reset interrupts cannot
 323:.\Generated_Source\PSoC5/QuadDec_M2.c **** *  be disabled, these bits are ignored.
 324:.\Generated_Source\PSoC5/QuadDec_M2.c **** *
 325:.\Generated_Source\PSoC5/QuadDec_M2.c **** * Parameters:
 326:.\Generated_Source\PSoC5/QuadDec_M2.c **** *  mask: Enable / disable bits in an 8-bit value, where 1 enables the interrupt.
 327:.\Generated_Source\PSoC5/QuadDec_M2.c **** *
 328:.\Generated_Source\PSoC5/QuadDec_M2.c **** * Return:
 329:.\Generated_Source\PSoC5/QuadDec_M2.c **** *  None.
 330:.\Generated_Source\PSoC5/QuadDec_M2.c **** *
 331:.\Generated_Source\PSoC5/QuadDec_M2.c **** *******************************************************************************/
 332:.\Generated_Source\PSoC5/QuadDec_M2.c **** void QuadDec_M2_SetInterruptMask(uint8 mask) 
 333:.\Generated_Source\PSoC5/QuadDec_M2.c **** {
 395              		.loc 1 333 0
 396              		.cfi_startproc
 397              		@ args = 0, pretend = 0, frame = 8
 398              		@ frame_needed = 1, uses_anonymous_args = 0
 399              		@ link register save eliminated.
 400 0000 80B4     		push	{r7}
 401              		.cfi_def_cfa_offset 4
 402              		.cfi_offset 7, -4
 403 0002 83B0     		sub	sp, sp, #12
 404              		.cfi_def_cfa_offset 16
 405 0004 00AF     		add	r7, sp, #0
 406              		.cfi_def_cfa_register 7
 407 0006 0346     		mov	r3, r0
 408 0008 FB71     		strb	r3, [r7, #7]
ARM GAS  C:\Users\patel\AppData\Local\Temp\ccd1ROQw.s 			page 14


 334:.\Generated_Source\PSoC5/QuadDec_M2.c ****     #if (QuadDec_M2_COUNTER_SIZE == QuadDec_M2_COUNTER_SIZE_32_BIT)
 335:.\Generated_Source\PSoC5/QuadDec_M2.c ****         /* Underflow, Overflow and Reset interrupts for 32-bit Counter are always enable */
 336:.\Generated_Source\PSoC5/QuadDec_M2.c ****         mask |= (QuadDec_M2_COUNTER_OVERFLOW | QuadDec_M2_COUNTER_UNDERFLOW |
 409              		.loc 1 336 0
 410 000a FB79     		ldrb	r3, [r7, #7]
 411 000c 43F00703 		orr	r3, r3, #7
 412 0010 FB71     		strb	r3, [r7, #7]
 337:.\Generated_Source\PSoC5/QuadDec_M2.c ****                  QuadDec_M2_COUNTER_RESET);
 338:.\Generated_Source\PSoC5/QuadDec_M2.c ****     #endif /* QuadDec_M2_COUNTER_SIZE == QuadDec_M2_COUNTER_SIZE_32_BIT */
 339:.\Generated_Source\PSoC5/QuadDec_M2.c **** 
 340:.\Generated_Source\PSoC5/QuadDec_M2.c ****     QuadDec_M2_STATUS_MASK = mask;
 413              		.loc 1 340 0
 414 0012 044A     		ldr	r2, .L26
 415 0014 FB79     		ldrb	r3, [r7, #7]
 416 0016 1370     		strb	r3, [r2]
 341:.\Generated_Source\PSoC5/QuadDec_M2.c **** }
 417              		.loc 1 341 0
 418 0018 0C37     		adds	r7, r7, #12
 419              		.cfi_def_cfa_offset 4
 420 001a BD46     		mov	sp, r7
 421              		.cfi_def_cfa_register 13
 422              		@ sp needed
 423 001c 5DF8047B 		ldr	r7, [sp], #4
 424              		.cfi_restore 7
 425              		.cfi_def_cfa_offset 0
 426 0020 7047     		bx	lr
 427              	.L27:
 428 0022 00BF     		.align	2
 429              	.L26:
 430 0024 87650040 		.word	1073767815
 431              		.cfi_endproc
 432              	.LFE7:
 433              		.size	QuadDec_M2_SetInterruptMask, .-QuadDec_M2_SetInterruptMask
 434              		.section	.text.QuadDec_M2_GetInterruptMask,"ax",%progbits
 435              		.align	2
 436              		.global	QuadDec_M2_GetInterruptMask
 437              		.thumb
 438              		.thumb_func
 439              		.type	QuadDec_M2_GetInterruptMask, %function
 440              	QuadDec_M2_GetInterruptMask:
 441              	.LFB8:
 342:.\Generated_Source\PSoC5/QuadDec_M2.c **** 
 343:.\Generated_Source\PSoC5/QuadDec_M2.c **** 
 344:.\Generated_Source\PSoC5/QuadDec_M2.c **** /*******************************************************************************
 345:.\Generated_Source\PSoC5/QuadDec_M2.c **** * Function Name: QuadDec_M2_GetInterruptMask
 346:.\Generated_Source\PSoC5/QuadDec_M2.c **** ********************************************************************************
 347:.\Generated_Source\PSoC5/QuadDec_M2.c **** *
 348:.\Generated_Source\PSoC5/QuadDec_M2.c **** * Summary:
 349:.\Generated_Source\PSoC5/QuadDec_M2.c **** *  Reports the current interrupt mask settings.
 350:.\Generated_Source\PSoC5/QuadDec_M2.c **** *
 351:.\Generated_Source\PSoC5/QuadDec_M2.c **** * Parameters:
 352:.\Generated_Source\PSoC5/QuadDec_M2.c **** *  None.
 353:.\Generated_Source\PSoC5/QuadDec_M2.c **** *
 354:.\Generated_Source\PSoC5/QuadDec_M2.c **** * Return:
 355:.\Generated_Source\PSoC5/QuadDec_M2.c **** *  Enable / disable bits in an 8-bit value, where 1 enables the interrupt.
 356:.\Generated_Source\PSoC5/QuadDec_M2.c **** *  For the 32-bit counter, the overflow, underflow and reset enable bits are
 357:.\Generated_Source\PSoC5/QuadDec_M2.c **** *  always set.
ARM GAS  C:\Users\patel\AppData\Local\Temp\ccd1ROQw.s 			page 15


 358:.\Generated_Source\PSoC5/QuadDec_M2.c **** *
 359:.\Generated_Source\PSoC5/QuadDec_M2.c **** *******************************************************************************/
 360:.\Generated_Source\PSoC5/QuadDec_M2.c **** uint8 QuadDec_M2_GetInterruptMask(void) 
 361:.\Generated_Source\PSoC5/QuadDec_M2.c **** {
 442              		.loc 1 361 0
 443              		.cfi_startproc
 444              		@ args = 0, pretend = 0, frame = 0
 445              		@ frame_needed = 1, uses_anonymous_args = 0
 446              		@ link register save eliminated.
 447 0000 80B4     		push	{r7}
 448              		.cfi_def_cfa_offset 4
 449              		.cfi_offset 7, -4
 450 0002 00AF     		add	r7, sp, #0
 451              		.cfi_def_cfa_register 7
 362:.\Generated_Source\PSoC5/QuadDec_M2.c ****     return (QuadDec_M2_STATUS_MASK & QuadDec_M2_INIT_INT_MASK);
 452              		.loc 1 362 0
 453 0004 054B     		ldr	r3, .L30
 454 0006 1B78     		ldrb	r3, [r3]
 455 0008 DBB2     		uxtb	r3, r3
 456 000a 03F00F03 		and	r3, r3, #15
 457 000e DBB2     		uxtb	r3, r3
 363:.\Generated_Source\PSoC5/QuadDec_M2.c **** }
 458              		.loc 1 363 0
 459 0010 1846     		mov	r0, r3
 460 0012 BD46     		mov	sp, r7
 461              		.cfi_def_cfa_register 13
 462              		@ sp needed
 463 0014 5DF8047B 		ldr	r7, [sp], #4
 464              		.cfi_restore 7
 465              		.cfi_def_cfa_offset 0
 466 0018 7047     		bx	lr
 467              	.L31:
 468 001a 00BF     		.align	2
 469              	.L30:
 470 001c 87650040 		.word	1073767815
 471              		.cfi_endproc
 472              	.LFE8:
 473              		.size	QuadDec_M2_GetInterruptMask, .-QuadDec_M2_GetInterruptMask
 474              		.text
 475              	.Letext0:
 476              		.file 2 ".\\Generated_Source\\PSoC5\\cytypes.h"
 477              		.file 3 ".\\Generated_Source\\PSoC5\\QuadDec_M2_PVT.h"