ARM GAS  C:\Users\patel\AppData\Local\Temp\ccJzP5A7.s 			page 1


   1              		.syntax unified
   2              		.cpu cortex-m3
   3              		.fpu softvfp
   4              		.eabi_attribute 20, 1
   5              		.eabi_attribute 21, 1
   6              		.eabi_attribute 23, 3
   7              		.eabi_attribute 24, 1
   8              		.eabi_attribute 25, 1
   9              		.eabi_attribute 26, 1
  10              		.eabi_attribute 30, 6
  11              		.eabi_attribute 34, 1
  12              		.eabi_attribute 18, 4
  13              		.thumb
  14              		.file	"QuadDec_M2_INT.c"
  15              		.text
  16              	.Ltext0:
  17              		.cfi_sections	.debug_frame
  18              		.global	QuadDec_M2_count32SoftPart
  19              		.bss
  20              		.align	2
  21              		.type	QuadDec_M2_count32SoftPart, %object
  22              		.size	QuadDec_M2_count32SoftPart, 4
  23              	QuadDec_M2_count32SoftPart:
  24 0000 00000000 		.space	4
  25              		.section	.text.QuadDec_M2_ISR,"ax",%progbits
  26              		.align	2
  27              		.global	QuadDec_M2_ISR
  28              		.thumb
  29              		.thumb_func
  30              		.type	QuadDec_M2_ISR, %function
  31              	QuadDec_M2_ISR:
  32              	.LFB0:
  33              		.file 1 ".\\Generated_Source\\PSoC5\\QuadDec_M2_INT.c"
   1:.\Generated_Source\PSoC5/QuadDec_M2_INT.c **** /*******************************************************************************
   2:.\Generated_Source\PSoC5/QuadDec_M2_INT.c **** * File Name: QuadDec_M2_INT.c
   3:.\Generated_Source\PSoC5/QuadDec_M2_INT.c **** * Version 3.0
   4:.\Generated_Source\PSoC5/QuadDec_M2_INT.c **** *
   5:.\Generated_Source\PSoC5/QuadDec_M2_INT.c **** * Description:
   6:.\Generated_Source\PSoC5/QuadDec_M2_INT.c **** *  This file contains the Interrupt Service Routine (ISR) for the Quadrature
   7:.\Generated_Source\PSoC5/QuadDec_M2_INT.c **** *  Decoder component.
   8:.\Generated_Source\PSoC5/QuadDec_M2_INT.c **** *
   9:.\Generated_Source\PSoC5/QuadDec_M2_INT.c **** * Note:
  10:.\Generated_Source\PSoC5/QuadDec_M2_INT.c **** *  None.
  11:.\Generated_Source\PSoC5/QuadDec_M2_INT.c **** *
  12:.\Generated_Source\PSoC5/QuadDec_M2_INT.c **** ********************************************************************************
  13:.\Generated_Source\PSoC5/QuadDec_M2_INT.c **** * Copyright 2008-2014, Cypress Semiconductor Corporation.  All rights reserved.
  14:.\Generated_Source\PSoC5/QuadDec_M2_INT.c **** * You may use this file only in accordance with the license, terms, conditions, 
  15:.\Generated_Source\PSoC5/QuadDec_M2_INT.c **** * disclaimers, and limitations in the end user license agreement accompanying
  16:.\Generated_Source\PSoC5/QuadDec_M2_INT.c **** * the software package with which this file was provided.
  17:.\Generated_Source\PSoC5/QuadDec_M2_INT.c **** *******************************************************************************/
  18:.\Generated_Source\PSoC5/QuadDec_M2_INT.c **** 
  19:.\Generated_Source\PSoC5/QuadDec_M2_INT.c **** #include "QuadDec_M2.h"
  20:.\Generated_Source\PSoC5/QuadDec_M2_INT.c **** #include "QuadDec_M2_PVT.h"
  21:.\Generated_Source\PSoC5/QuadDec_M2_INT.c **** 
  22:.\Generated_Source\PSoC5/QuadDec_M2_INT.c **** 
  23:.\Generated_Source\PSoC5/QuadDec_M2_INT.c **** volatile int32 QuadDec_M2_count32SoftPart = 0;
  24:.\Generated_Source\PSoC5/QuadDec_M2_INT.c **** 
ARM GAS  C:\Users\patel\AppData\Local\Temp\ccJzP5A7.s 			page 2


  25:.\Generated_Source\PSoC5/QuadDec_M2_INT.c **** 
  26:.\Generated_Source\PSoC5/QuadDec_M2_INT.c **** /*******************************************************************************
  27:.\Generated_Source\PSoC5/QuadDec_M2_INT.c **** * FUNCTION NAME: void QuadDec_M2_ISR
  28:.\Generated_Source\PSoC5/QuadDec_M2_INT.c **** ********************************************************************************
  29:.\Generated_Source\PSoC5/QuadDec_M2_INT.c **** *
  30:.\Generated_Source\PSoC5/QuadDec_M2_INT.c **** * Summary:
  31:.\Generated_Source\PSoC5/QuadDec_M2_INT.c **** *  Interrupt Service Routine for Quadrature Decoder Component.
  32:.\Generated_Source\PSoC5/QuadDec_M2_INT.c **** *
  33:.\Generated_Source\PSoC5/QuadDec_M2_INT.c **** * Parameters:
  34:.\Generated_Source\PSoC5/QuadDec_M2_INT.c **** *  None.
  35:.\Generated_Source\PSoC5/QuadDec_M2_INT.c **** *
  36:.\Generated_Source\PSoC5/QuadDec_M2_INT.c **** * Return:
  37:.\Generated_Source\PSoC5/QuadDec_M2_INT.c **** *  None.
  38:.\Generated_Source\PSoC5/QuadDec_M2_INT.c **** *
  39:.\Generated_Source\PSoC5/QuadDec_M2_INT.c **** * Global variables:
  40:.\Generated_Source\PSoC5/QuadDec_M2_INT.c **** *  QuadDec_M2_count32SoftPart - modified to update hi 16 bit for current
  41:.\Generated_Source\PSoC5/QuadDec_M2_INT.c **** *  value of the 32-bit counter, when Counter size equal 32-bit.
  42:.\Generated_Source\PSoC5/QuadDec_M2_INT.c **** *  QuadDec_M2_swStatus - modified with the updated values of STATUS
  43:.\Generated_Source\PSoC5/QuadDec_M2_INT.c **** *  register.
  44:.\Generated_Source\PSoC5/QuadDec_M2_INT.c **** *
  45:.\Generated_Source\PSoC5/QuadDec_M2_INT.c **** *******************************************************************************/
  46:.\Generated_Source\PSoC5/QuadDec_M2_INT.c **** CY_ISR( QuadDec_M2_ISR )
  47:.\Generated_Source\PSoC5/QuadDec_M2_INT.c **** {
  34              		.loc 1 47 0
  35              		.cfi_startproc
  36              		@ args = 0, pretend = 0, frame = 8
  37              		@ frame_needed = 1, uses_anonymous_args = 0
  38              		@ link register save eliminated.
  39 0000 80B4     		push	{r7}
  40              		.cfi_def_cfa_offset 4
  41              		.cfi_offset 7, -4
  42 0002 83B0     		sub	sp, sp, #12
  43              		.cfi_def_cfa_offset 16
  44 0004 00AF     		add	r7, sp, #0
  45              		.cfi_def_cfa_register 7
  48:.\Generated_Source\PSoC5/QuadDec_M2_INT.c ****    uint8 QuadDec_M2_swStatus;
  49:.\Generated_Source\PSoC5/QuadDec_M2_INT.c **** 
  50:.\Generated_Source\PSoC5/QuadDec_M2_INT.c ****    QuadDec_M2_swStatus = QuadDec_M2_STATUS_REG;
  46              		.loc 1 50 0
  47 0006 144B     		ldr	r3, .L5
  48 0008 1B78     		ldrb	r3, [r3]
  49 000a FB71     		strb	r3, [r7, #7]
  51:.\Generated_Source\PSoC5/QuadDec_M2_INT.c **** 
  52:.\Generated_Source\PSoC5/QuadDec_M2_INT.c ****     #ifdef QuadDec_M2_ISR_ENTRY_CALLBACK
  53:.\Generated_Source\PSoC5/QuadDec_M2_INT.c ****         QuadDec_M2_ISR_EntryCallback();
  54:.\Generated_Source\PSoC5/QuadDec_M2_INT.c ****     #endif /* QuadDec_M2_ISR_ENTRY_CALLBACK */
  55:.\Generated_Source\PSoC5/QuadDec_M2_INT.c **** 
  56:.\Generated_Source\PSoC5/QuadDec_M2_INT.c ****     /* User code required at start of ISR */
  57:.\Generated_Source\PSoC5/QuadDec_M2_INT.c ****     /* `#START QuadDec_M2_ISR_START` */
  58:.\Generated_Source\PSoC5/QuadDec_M2_INT.c **** 
  59:.\Generated_Source\PSoC5/QuadDec_M2_INT.c ****     /* `#END` */
  60:.\Generated_Source\PSoC5/QuadDec_M2_INT.c **** 
  61:.\Generated_Source\PSoC5/QuadDec_M2_INT.c ****     if (0u != (QuadDec_M2_swStatus & QuadDec_M2_COUNTER_OVERFLOW))
  50              		.loc 1 61 0
  51 000c FB79     		ldrb	r3, [r7, #7]	@ zero_extendqisi2
  52 000e 03F00103 		and	r3, r3, #1
  53 0012 002B     		cmp	r3, #0
ARM GAS  C:\Users\patel\AppData\Local\Temp\ccJzP5A7.s 			page 3


  54 0014 07D0     		beq	.L2
  62:.\Generated_Source\PSoC5/QuadDec_M2_INT.c ****     {
  63:.\Generated_Source\PSoC5/QuadDec_M2_INT.c ****         QuadDec_M2_count32SoftPart += (int32) QuadDec_M2_COUNTER_MAX_VALUE;
  55              		.loc 1 63 0
  56 0016 114B     		ldr	r3, .L5+4
  57 0018 1B68     		ldr	r3, [r3]
  58 001a 03F5FF43 		add	r3, r3, #32640
  59 001e 7F33     		adds	r3, r3, #127
  60 0020 0E4A     		ldr	r2, .L5+4
  61 0022 1360     		str	r3, [r2]
  62 0024 0AE0     		b	.L3
  63              	.L2:
  64:.\Generated_Source\PSoC5/QuadDec_M2_INT.c ****     }
  65:.\Generated_Source\PSoC5/QuadDec_M2_INT.c ****     else if (0u != (QuadDec_M2_swStatus & QuadDec_M2_COUNTER_UNDERFLOW))
  64              		.loc 1 65 0
  65 0026 FB79     		ldrb	r3, [r7, #7]	@ zero_extendqisi2
  66 0028 03F00203 		and	r3, r3, #2
  67 002c 002B     		cmp	r3, #0
  68 002e 05D0     		beq	.L3
  66:.\Generated_Source\PSoC5/QuadDec_M2_INT.c ****     {
  67:.\Generated_Source\PSoC5/QuadDec_M2_INT.c ****         QuadDec_M2_count32SoftPart -= (int32) QuadDec_M2_COUNTER_INIT_VALUE;
  69              		.loc 1 67 0
  70 0030 0A4B     		ldr	r3, .L5+4
  71 0032 1B68     		ldr	r3, [r3]
  72 0034 A3F50043 		sub	r3, r3, #32768
  73 0038 084A     		ldr	r2, .L5+4
  74 003a 1360     		str	r3, [r2]
  75              	.L3:
  68:.\Generated_Source\PSoC5/QuadDec_M2_INT.c ****     }
  69:.\Generated_Source\PSoC5/QuadDec_M2_INT.c ****     else
  70:.\Generated_Source\PSoC5/QuadDec_M2_INT.c ****     {
  71:.\Generated_Source\PSoC5/QuadDec_M2_INT.c ****         /* Nothing to do here */
  72:.\Generated_Source\PSoC5/QuadDec_M2_INT.c ****     }
  73:.\Generated_Source\PSoC5/QuadDec_M2_INT.c ****     
  74:.\Generated_Source\PSoC5/QuadDec_M2_INT.c ****     if (0u != (QuadDec_M2_swStatus & QuadDec_M2_COUNTER_RESET))
  76              		.loc 1 74 0
  77 003c FB79     		ldrb	r3, [r7, #7]	@ zero_extendqisi2
  78 003e 03F00403 		and	r3, r3, #4
  79 0042 002B     		cmp	r3, #0
  80 0044 02D0     		beq	.L1
  75:.\Generated_Source\PSoC5/QuadDec_M2_INT.c ****     {
  76:.\Generated_Source\PSoC5/QuadDec_M2_INT.c ****         QuadDec_M2_count32SoftPart = 0;
  81              		.loc 1 76 0
  82 0046 054B     		ldr	r3, .L5+4
  83 0048 0022     		movs	r2, #0
  84 004a 1A60     		str	r2, [r3]
  85              	.L1:
  77:.\Generated_Source\PSoC5/QuadDec_M2_INT.c ****     }
  78:.\Generated_Source\PSoC5/QuadDec_M2_INT.c ****     
  79:.\Generated_Source\PSoC5/QuadDec_M2_INT.c ****     /* User code required at end of ISR */
  80:.\Generated_Source\PSoC5/QuadDec_M2_INT.c ****     /* `#START QuadDec_M2_ISR_END` */
  81:.\Generated_Source\PSoC5/QuadDec_M2_INT.c **** 
  82:.\Generated_Source\PSoC5/QuadDec_M2_INT.c ****     /* `#END` */
  83:.\Generated_Source\PSoC5/QuadDec_M2_INT.c **** 
  84:.\Generated_Source\PSoC5/QuadDec_M2_INT.c ****     #ifdef QuadDec_M2_ISR_EXIT_CALLBACK
  85:.\Generated_Source\PSoC5/QuadDec_M2_INT.c ****         QuadDec_M2_ISR_ExitCallback();
  86:.\Generated_Source\PSoC5/QuadDec_M2_INT.c ****     #endif /* QuadDec_M2_ISR_EXIT_CALLBACK */
ARM GAS  C:\Users\patel\AppData\Local\Temp\ccJzP5A7.s 			page 4


  87:.\Generated_Source\PSoC5/QuadDec_M2_INT.c **** }
  86              		.loc 1 87 0
  87 004c 0C37     		adds	r7, r7, #12
  88              		.cfi_def_cfa_offset 4
  89 004e BD46     		mov	sp, r7
  90              		.cfi_def_cfa_register 13
  91              		@ sp needed
  92 0050 5DF8047B 		ldr	r7, [sp], #4
  93              		.cfi_restore 7
  94              		.cfi_def_cfa_offset 0
  95 0054 7047     		bx	lr
  96              	.L6:
  97 0056 00BF     		.align	2
  98              	.L5:
  99 0058 67650040 		.word	1073767783
 100 005c 00000000 		.word	QuadDec_M2_count32SoftPart
 101              		.cfi_endproc
 102              	.LFE0:
 103              		.size	QuadDec_M2_ISR, .-QuadDec_M2_ISR
 104              		.text
 105              	.Letext0:
 106              		.file 2 ".\\Generated_Source\\PSoC5\\cytypes.h"